
Drivers1.elf:     file format elf32-littlearm

Sections:
Idx Name          Size      VMA       LMA       File off  Algn
  0 .isr_vector   00000130  08000000  08000000  00010000  2**0
                  CONTENTS, ALLOC, LOAD, READONLY, DATA
  1 .text         0000118c  08000130  08000130  00010130  2**2
                  CONTENTS, ALLOC, LOAD, READONLY, CODE
  2 .rodata       0000003c  080012bc  080012bc  000112bc  2**2
                  CONTENTS, ALLOC, LOAD, READONLY, DATA
  3 .ARM.extab    00000000  080012f8  080012f8  00020008  2**0
                  CONTENTS
  4 .ARM          00000000  080012f8  080012f8  00020008  2**0
                  CONTENTS
  5 .preinit_array 00000000  080012f8  080012f8  00020008  2**0
                  CONTENTS, ALLOC, LOAD, DATA
  6 .init_array   00000004  080012f8  080012f8  000112f8  2**2
                  CONTENTS, ALLOC, LOAD, DATA
  7 .fini_array   00000004  080012fc  080012fc  000112fc  2**2
                  CONTENTS, ALLOC, LOAD, DATA
  8 .data         00000008  20000000  08001300  00020000  2**2
                  CONTENTS, ALLOC, LOAD, DATA
  9 .bss          0000058c  20000008  08001308  00020008  2**2
                  ALLOC
 10 ._user_heap_stack 00000604  20000594  08001308  00020594  2**0
                  ALLOC
 11 .ARM.attributes 00000029  00000000  00000000  00020008  2**0
                  CONTENTS, READONLY
 12 .debug_info   00006dbc  00000000  00000000  00020031  2**0
                  CONTENTS, READONLY, DEBUGGING
 13 .debug_abbrev 00001140  00000000  00000000  00026ded  2**0
                  CONTENTS, READONLY, DEBUGGING
 14 .debug_loc    00001580  00000000  00000000  00027f2d  2**0
                  CONTENTS, READONLY, DEBUGGING
 15 .debug_aranges 00000358  00000000  00000000  000294b0  2**3
                  CONTENTS, READONLY, DEBUGGING
 16 .debug_ranges 000002d0  00000000  00000000  00029808  2**3
                  CONTENTS, READONLY, DEBUGGING
 17 .debug_macro  0000274e  00000000  00000000  00029ad8  2**0
                  CONTENTS, READONLY, DEBUGGING
 18 .debug_line   00003701  00000000  00000000  0002c226  2**0
                  CONTENTS, READONLY, DEBUGGING
 19 .debug_str    00012a1b  00000000  00000000  0002f927  2**0
                  CONTENTS, READONLY, DEBUGGING
 20 .comment      0000007b  00000000  00000000  00042342  2**0
                  CONTENTS, READONLY
 21 .debug_frame  00000b2c  00000000  00000000  000423c0  2**2
                  CONTENTS, READONLY, DEBUGGING

Disassembly of section .text:

08000130 <__do_global_dtors_aux>:
 8000130:	b510      	push	{r4, lr}
 8000132:	4c05      	ldr	r4, [pc, #20]	; (8000148 <__do_global_dtors_aux+0x18>)
 8000134:	7823      	ldrb	r3, [r4, #0]
 8000136:	b933      	cbnz	r3, 8000146 <__do_global_dtors_aux+0x16>
 8000138:	4b04      	ldr	r3, [pc, #16]	; (800014c <__do_global_dtors_aux+0x1c>)
 800013a:	b113      	cbz	r3, 8000142 <__do_global_dtors_aux+0x12>
 800013c:	4804      	ldr	r0, [pc, #16]	; (8000150 <__do_global_dtors_aux+0x20>)
 800013e:	f3af 8000 	nop.w
 8000142:	2301      	movs	r3, #1
 8000144:	7023      	strb	r3, [r4, #0]
 8000146:	bd10      	pop	{r4, pc}
 8000148:	20000008 	.word	0x20000008
 800014c:	00000000 	.word	0x00000000
 8000150:	080012a4 	.word	0x080012a4

08000154 <frame_dummy>:
 8000154:	b508      	push	{r3, lr}
 8000156:	4b03      	ldr	r3, [pc, #12]	; (8000164 <frame_dummy+0x10>)
 8000158:	b11b      	cbz	r3, 8000162 <frame_dummy+0xe>
 800015a:	4903      	ldr	r1, [pc, #12]	; (8000168 <frame_dummy+0x14>)
 800015c:	4803      	ldr	r0, [pc, #12]	; (800016c <frame_dummy+0x18>)
 800015e:	f3af 8000 	nop.w
 8000162:	bd08      	pop	{r3, pc}
 8000164:	00000000 	.word	0x00000000
 8000168:	2000000c 	.word	0x2000000c
 800016c:	080012a4 	.word	0x080012a4

08000170 <strcmp>:
 8000170:	f810 2b01 	ldrb.w	r2, [r0], #1
 8000174:	f811 3b01 	ldrb.w	r3, [r1], #1
 8000178:	2a01      	cmp	r2, #1
 800017a:	bf28      	it	cs
 800017c:	429a      	cmpcs	r2, r3
 800017e:	d0f7      	beq.n	8000170 <strcmp>
 8000180:	1ad0      	subs	r0, r2, r3
 8000182:	4770      	bx	lr

08000184 <EXTI0_IRQHandler>:
// ISR functions
//-----------------------------


void EXTI0_IRQHandler(void)
{
 8000184:	b580      	push	{r7, lr}
 8000186:	af00      	add	r7, sp, #0
	EXTI->EXTI_PR |= (1<<0); //WRITE 1 TO CLEAR
 8000188:	4b05      	ldr	r3, [pc, #20]	; (80001a0 <EXTI0_IRQHandler+0x1c>)
 800018a:	695b      	ldr	r3, [r3, #20]
 800018c:	4a04      	ldr	r2, [pc, #16]	; (80001a0 <EXTI0_IRQHandler+0x1c>)
 800018e:	f043 0301 	orr.w	r3, r3, #1
 8000192:	6153      	str	r3, [r2, #20]
	GP_IRQ_CallBack[0]();
 8000194:	4b03      	ldr	r3, [pc, #12]	; (80001a4 <EXTI0_IRQHandler+0x20>)
 8000196:	681b      	ldr	r3, [r3, #0]
 8000198:	4798      	blx	r3
}
 800019a:	bf00      	nop
 800019c:	bd80      	pop	{r7, pc}
 800019e:	bf00      	nop
 80001a0:	40010400 	.word	0x40010400
 80001a4:	20000040 	.word	0x20000040

080001a8 <EXTI1_IRQHandler>:

void EXTI1_IRQHandler(void)
{
 80001a8:	b580      	push	{r7, lr}
 80001aa:	af00      	add	r7, sp, #0
	EXTI->EXTI_PR |= (1<<1); //WRITE 1 TO CLEAR
 80001ac:	4b05      	ldr	r3, [pc, #20]	; (80001c4 <EXTI1_IRQHandler+0x1c>)
 80001ae:	695b      	ldr	r3, [r3, #20]
 80001b0:	4a04      	ldr	r2, [pc, #16]	; (80001c4 <EXTI1_IRQHandler+0x1c>)
 80001b2:	f043 0302 	orr.w	r3, r3, #2
 80001b6:	6153      	str	r3, [r2, #20]
	GP_IRQ_CallBack[1]();
 80001b8:	4b03      	ldr	r3, [pc, #12]	; (80001c8 <EXTI1_IRQHandler+0x20>)
 80001ba:	685b      	ldr	r3, [r3, #4]
 80001bc:	4798      	blx	r3
}
 80001be:	bf00      	nop
 80001c0:	bd80      	pop	{r7, pc}
 80001c2:	bf00      	nop
 80001c4:	40010400 	.word	0x40010400
 80001c8:	20000040 	.word	0x20000040

080001cc <EXTI2_IRQHandler>:


void EXTI2_IRQHandler(void)
{
 80001cc:	b580      	push	{r7, lr}
 80001ce:	af00      	add	r7, sp, #0
	EXTI->EXTI_PR |= (1<<2); //WRITE 1 TO CLEAR
 80001d0:	4b05      	ldr	r3, [pc, #20]	; (80001e8 <EXTI2_IRQHandler+0x1c>)
 80001d2:	695b      	ldr	r3, [r3, #20]
 80001d4:	4a04      	ldr	r2, [pc, #16]	; (80001e8 <EXTI2_IRQHandler+0x1c>)
 80001d6:	f043 0304 	orr.w	r3, r3, #4
 80001da:	6153      	str	r3, [r2, #20]
	GP_IRQ_CallBack[2]();
 80001dc:	4b03      	ldr	r3, [pc, #12]	; (80001ec <EXTI2_IRQHandler+0x20>)
 80001de:	689b      	ldr	r3, [r3, #8]
 80001e0:	4798      	blx	r3
}
 80001e2:	bf00      	nop
 80001e4:	bd80      	pop	{r7, pc}
 80001e6:	bf00      	nop
 80001e8:	40010400 	.word	0x40010400
 80001ec:	20000040 	.word	0x20000040

080001f0 <EXTI3_IRQHandler>:


void EXTI3_IRQHandler(void)
{
 80001f0:	b580      	push	{r7, lr}
 80001f2:	af00      	add	r7, sp, #0
	EXTI->EXTI_PR |= (1<<3); //WRITE 1 TO CLEAR
 80001f4:	4b05      	ldr	r3, [pc, #20]	; (800020c <EXTI3_IRQHandler+0x1c>)
 80001f6:	695b      	ldr	r3, [r3, #20]
 80001f8:	4a04      	ldr	r2, [pc, #16]	; (800020c <EXTI3_IRQHandler+0x1c>)
 80001fa:	f043 0308 	orr.w	r3, r3, #8
 80001fe:	6153      	str	r3, [r2, #20]
	GP_IRQ_CallBack[3]();
 8000200:	4b03      	ldr	r3, [pc, #12]	; (8000210 <EXTI3_IRQHandler+0x20>)
 8000202:	68db      	ldr	r3, [r3, #12]
 8000204:	4798      	blx	r3
}
 8000206:	bf00      	nop
 8000208:	bd80      	pop	{r7, pc}
 800020a:	bf00      	nop
 800020c:	40010400 	.word	0x40010400
 8000210:	20000040 	.word	0x20000040

08000214 <EXTI4_IRQHandler>:

void EXTI4_IRQHandler(void)
{
 8000214:	b580      	push	{r7, lr}
 8000216:	af00      	add	r7, sp, #0
	EXTI->EXTI_PR |= (1<<4); //WRITE 1 TO CLEAR
 8000218:	4b05      	ldr	r3, [pc, #20]	; (8000230 <EXTI4_IRQHandler+0x1c>)
 800021a:	695b      	ldr	r3, [r3, #20]
 800021c:	4a04      	ldr	r2, [pc, #16]	; (8000230 <EXTI4_IRQHandler+0x1c>)
 800021e:	f043 0310 	orr.w	r3, r3, #16
 8000222:	6153      	str	r3, [r2, #20]
	GP_IRQ_CallBack[4]();
 8000224:	4b03      	ldr	r3, [pc, #12]	; (8000234 <EXTI4_IRQHandler+0x20>)
 8000226:	691b      	ldr	r3, [r3, #16]
 8000228:	4798      	blx	r3
}
 800022a:	bf00      	nop
 800022c:	bd80      	pop	{r7, pc}
 800022e:	bf00      	nop
 8000230:	40010400 	.word	0x40010400
 8000234:	20000040 	.word	0x20000040

08000238 <EXTI9_5_IRQHandler>:

void EXTI9_5_IRQHandler(void)
{
 8000238:	b580      	push	{r7, lr}
 800023a:	af00      	add	r7, sp, #0
	if( EXTI->EXTI_PR & (1<<5))
 800023c:	4b26      	ldr	r3, [pc, #152]	; (80002d8 <EXTI9_5_IRQHandler+0xa0>)
 800023e:	695b      	ldr	r3, [r3, #20]
 8000240:	f003 0320 	and.w	r3, r3, #32
 8000244:	2b00      	cmp	r3, #0
 8000246:	d008      	beq.n	800025a <EXTI9_5_IRQHandler+0x22>
	{
		EXTI->EXTI_PR |= (1<<5); //WRITE 1 TO CLEAR
 8000248:	4b23      	ldr	r3, [pc, #140]	; (80002d8 <EXTI9_5_IRQHandler+0xa0>)
 800024a:	695b      	ldr	r3, [r3, #20]
 800024c:	4a22      	ldr	r2, [pc, #136]	; (80002d8 <EXTI9_5_IRQHandler+0xa0>)
 800024e:	f043 0320 	orr.w	r3, r3, #32
 8000252:	6153      	str	r3, [r2, #20]
		GP_IRQ_CallBack[5]();
 8000254:	4b21      	ldr	r3, [pc, #132]	; (80002dc <EXTI9_5_IRQHandler+0xa4>)
 8000256:	695b      	ldr	r3, [r3, #20]
 8000258:	4798      	blx	r3
	}
	if( EXTI->EXTI_PR & (1<<6))
 800025a:	4b1f      	ldr	r3, [pc, #124]	; (80002d8 <EXTI9_5_IRQHandler+0xa0>)
 800025c:	695b      	ldr	r3, [r3, #20]
 800025e:	f003 0340 	and.w	r3, r3, #64	; 0x40
 8000262:	2b00      	cmp	r3, #0
 8000264:	d008      	beq.n	8000278 <EXTI9_5_IRQHandler+0x40>
	{
		EXTI->EXTI_PR |= (1<<6); //WRITE 1 TO CLEAR
 8000266:	4b1c      	ldr	r3, [pc, #112]	; (80002d8 <EXTI9_5_IRQHandler+0xa0>)
 8000268:	695b      	ldr	r3, [r3, #20]
 800026a:	4a1b      	ldr	r2, [pc, #108]	; (80002d8 <EXTI9_5_IRQHandler+0xa0>)
 800026c:	f043 0340 	orr.w	r3, r3, #64	; 0x40
 8000270:	6153      	str	r3, [r2, #20]
		GP_IRQ_CallBack[6]();
 8000272:	4b1a      	ldr	r3, [pc, #104]	; (80002dc <EXTI9_5_IRQHandler+0xa4>)
 8000274:	699b      	ldr	r3, [r3, #24]
 8000276:	4798      	blx	r3
	}
	if( EXTI->EXTI_PR & (1<<7))
 8000278:	4b17      	ldr	r3, [pc, #92]	; (80002d8 <EXTI9_5_IRQHandler+0xa0>)
 800027a:	695b      	ldr	r3, [r3, #20]
 800027c:	f003 0380 	and.w	r3, r3, #128	; 0x80
 8000280:	2b00      	cmp	r3, #0
 8000282:	d008      	beq.n	8000296 <EXTI9_5_IRQHandler+0x5e>
	{
		EXTI->EXTI_PR |= (1<<7); //WRITE 1 TO CLEAR
 8000284:	4b14      	ldr	r3, [pc, #80]	; (80002d8 <EXTI9_5_IRQHandler+0xa0>)
 8000286:	695b      	ldr	r3, [r3, #20]
 8000288:	4a13      	ldr	r2, [pc, #76]	; (80002d8 <EXTI9_5_IRQHandler+0xa0>)
 800028a:	f043 0380 	orr.w	r3, r3, #128	; 0x80
 800028e:	6153      	str	r3, [r2, #20]
		GP_IRQ_CallBack[7]();
 8000290:	4b12      	ldr	r3, [pc, #72]	; (80002dc <EXTI9_5_IRQHandler+0xa4>)
 8000292:	69db      	ldr	r3, [r3, #28]
 8000294:	4798      	blx	r3
	}
	if( EXTI->EXTI_PR & (1<<8))
 8000296:	4b10      	ldr	r3, [pc, #64]	; (80002d8 <EXTI9_5_IRQHandler+0xa0>)
 8000298:	695b      	ldr	r3, [r3, #20]
 800029a:	f403 7380 	and.w	r3, r3, #256	; 0x100
 800029e:	2b00      	cmp	r3, #0
 80002a0:	d008      	beq.n	80002b4 <EXTI9_5_IRQHandler+0x7c>
	{
		EXTI->EXTI_PR |= (1<<8); //WRITE 1 TO CLEAR
 80002a2:	4b0d      	ldr	r3, [pc, #52]	; (80002d8 <EXTI9_5_IRQHandler+0xa0>)
 80002a4:	695b      	ldr	r3, [r3, #20]
 80002a6:	4a0c      	ldr	r2, [pc, #48]	; (80002d8 <EXTI9_5_IRQHandler+0xa0>)
 80002a8:	f443 7380 	orr.w	r3, r3, #256	; 0x100
 80002ac:	6153      	str	r3, [r2, #20]
		GP_IRQ_CallBack[8]();
 80002ae:	4b0b      	ldr	r3, [pc, #44]	; (80002dc <EXTI9_5_IRQHandler+0xa4>)
 80002b0:	6a1b      	ldr	r3, [r3, #32]
 80002b2:	4798      	blx	r3
	}
	if( EXTI->EXTI_PR & (1<<9))
 80002b4:	4b08      	ldr	r3, [pc, #32]	; (80002d8 <EXTI9_5_IRQHandler+0xa0>)
 80002b6:	695b      	ldr	r3, [r3, #20]
 80002b8:	f403 7300 	and.w	r3, r3, #512	; 0x200
 80002bc:	2b00      	cmp	r3, #0
 80002be:	d008      	beq.n	80002d2 <EXTI9_5_IRQHandler+0x9a>
	{
		EXTI->EXTI_PR |= (1<<9); //WRITE 1 TO CLEAR
 80002c0:	4b05      	ldr	r3, [pc, #20]	; (80002d8 <EXTI9_5_IRQHandler+0xa0>)
 80002c2:	695b      	ldr	r3, [r3, #20]
 80002c4:	4a04      	ldr	r2, [pc, #16]	; (80002d8 <EXTI9_5_IRQHandler+0xa0>)
 80002c6:	f443 7300 	orr.w	r3, r3, #512	; 0x200
 80002ca:	6153      	str	r3, [r2, #20]
		GP_IRQ_CallBack[9]();
 80002cc:	4b03      	ldr	r3, [pc, #12]	; (80002dc <EXTI9_5_IRQHandler+0xa4>)
 80002ce:	6a5b      	ldr	r3, [r3, #36]	; 0x24
 80002d0:	4798      	blx	r3
	}
}
 80002d2:	bf00      	nop
 80002d4:	bd80      	pop	{r7, pc}
 80002d6:	bf00      	nop
 80002d8:	40010400 	.word	0x40010400
 80002dc:	20000040 	.word	0x20000040

080002e0 <EXTI15_10_IRQHandler>:

void EXTI15_10_IRQHandler(void)
{
 80002e0:	b580      	push	{r7, lr}
 80002e2:	af00      	add	r7, sp, #0
	if( EXTI->EXTI_PR & (1<<10))
 80002e4:	4b30      	ldr	r3, [pc, #192]	; (80003a8 <EXTI15_10_IRQHandler+0xc8>)
 80002e6:	695b      	ldr	r3, [r3, #20]
 80002e8:	f403 6380 	and.w	r3, r3, #1024	; 0x400
 80002ec:	2b00      	cmp	r3, #0
 80002ee:	d009      	beq.n	8000304 <EXTI15_10_IRQHandler+0x24>
	{
		EXTI->EXTI_PR |= (1<<10); //WRITE 1 TO CLEAR
 80002f0:	4b2d      	ldr	r3, [pc, #180]	; (80003a8 <EXTI15_10_IRQHandler+0xc8>)
 80002f2:	695b      	ldr	r3, [r3, #20]
 80002f4:	4a2c      	ldr	r2, [pc, #176]	; (80003a8 <EXTI15_10_IRQHandler+0xc8>)
 80002f6:	f443 6380 	orr.w	r3, r3, #1024	; 0x400
 80002fa:	6153      	str	r3, [r2, #20]
		GP_IRQ_CallBack[10]();
 80002fc:	4b2b      	ldr	r3, [pc, #172]	; (80003ac <EXTI15_10_IRQHandler+0xcc>)
 80002fe:	6a9b      	ldr	r3, [r3, #40]	; 0x28
 8000300:	4798      	blx	r3
		EXTI->EXTI_PR |= (1<<15); //WRITE 1 TO CLEAR
		GP_IRQ_CallBack[15]();
	}


}
 8000302:	e04e      	b.n	80003a2 <EXTI15_10_IRQHandler+0xc2>
	else if( EXTI->EXTI_PR & (1<<11))
 8000304:	4b28      	ldr	r3, [pc, #160]	; (80003a8 <EXTI15_10_IRQHandler+0xc8>)
 8000306:	695b      	ldr	r3, [r3, #20]
 8000308:	f403 6300 	and.w	r3, r3, #2048	; 0x800
 800030c:	2b00      	cmp	r3, #0
 800030e:	d009      	beq.n	8000324 <EXTI15_10_IRQHandler+0x44>
		EXTI->EXTI_PR |= (1<<11); //WRITE 1 TO CLEAR
 8000310:	4b25      	ldr	r3, [pc, #148]	; (80003a8 <EXTI15_10_IRQHandler+0xc8>)
 8000312:	695b      	ldr	r3, [r3, #20]
 8000314:	4a24      	ldr	r2, [pc, #144]	; (80003a8 <EXTI15_10_IRQHandler+0xc8>)
 8000316:	f443 6300 	orr.w	r3, r3, #2048	; 0x800
 800031a:	6153      	str	r3, [r2, #20]
		GP_IRQ_CallBack[11]();
 800031c:	4b23      	ldr	r3, [pc, #140]	; (80003ac <EXTI15_10_IRQHandler+0xcc>)
 800031e:	6adb      	ldr	r3, [r3, #44]	; 0x2c
 8000320:	4798      	blx	r3
}
 8000322:	e03e      	b.n	80003a2 <EXTI15_10_IRQHandler+0xc2>
	else if( EXTI->EXTI_PR & (1<<12))
 8000324:	4b20      	ldr	r3, [pc, #128]	; (80003a8 <EXTI15_10_IRQHandler+0xc8>)
 8000326:	695b      	ldr	r3, [r3, #20]
 8000328:	f403 5380 	and.w	r3, r3, #4096	; 0x1000
 800032c:	2b00      	cmp	r3, #0
 800032e:	d009      	beq.n	8000344 <EXTI15_10_IRQHandler+0x64>
		EXTI->EXTI_PR |= (1<<12); //WRITE 1 TO CLEAR
 8000330:	4b1d      	ldr	r3, [pc, #116]	; (80003a8 <EXTI15_10_IRQHandler+0xc8>)
 8000332:	695b      	ldr	r3, [r3, #20]
 8000334:	4a1c      	ldr	r2, [pc, #112]	; (80003a8 <EXTI15_10_IRQHandler+0xc8>)
 8000336:	f443 5380 	orr.w	r3, r3, #4096	; 0x1000
 800033a:	6153      	str	r3, [r2, #20]
		GP_IRQ_CallBack[12]();
 800033c:	4b1b      	ldr	r3, [pc, #108]	; (80003ac <EXTI15_10_IRQHandler+0xcc>)
 800033e:	6b1b      	ldr	r3, [r3, #48]	; 0x30
 8000340:	4798      	blx	r3
}
 8000342:	e02e      	b.n	80003a2 <EXTI15_10_IRQHandler+0xc2>
	else if( EXTI->EXTI_PR & (1<<13))
 8000344:	4b18      	ldr	r3, [pc, #96]	; (80003a8 <EXTI15_10_IRQHandler+0xc8>)
 8000346:	695b      	ldr	r3, [r3, #20]
 8000348:	f403 5300 	and.w	r3, r3, #8192	; 0x2000
 800034c:	2b00      	cmp	r3, #0
 800034e:	d009      	beq.n	8000364 <EXTI15_10_IRQHandler+0x84>
		EXTI->EXTI_PR |= (1<<13); //WRITE 1 TO CLEAR
 8000350:	4b15      	ldr	r3, [pc, #84]	; (80003a8 <EXTI15_10_IRQHandler+0xc8>)
 8000352:	695b      	ldr	r3, [r3, #20]
 8000354:	4a14      	ldr	r2, [pc, #80]	; (80003a8 <EXTI15_10_IRQHandler+0xc8>)
 8000356:	f443 5300 	orr.w	r3, r3, #8192	; 0x2000
 800035a:	6153      	str	r3, [r2, #20]
		GP_IRQ_CallBack[13]();
 800035c:	4b13      	ldr	r3, [pc, #76]	; (80003ac <EXTI15_10_IRQHandler+0xcc>)
 800035e:	6b5b      	ldr	r3, [r3, #52]	; 0x34
 8000360:	4798      	blx	r3
}
 8000362:	e01e      	b.n	80003a2 <EXTI15_10_IRQHandler+0xc2>
	else if( EXTI->EXTI_PR & (1<<14))
 8000364:	4b10      	ldr	r3, [pc, #64]	; (80003a8 <EXTI15_10_IRQHandler+0xc8>)
 8000366:	695b      	ldr	r3, [r3, #20]
 8000368:	f403 4380 	and.w	r3, r3, #16384	; 0x4000
 800036c:	2b00      	cmp	r3, #0
 800036e:	d009      	beq.n	8000384 <EXTI15_10_IRQHandler+0xa4>
		EXTI->EXTI_PR |= (1<<14); //WRITE 1 TO CLEAR
 8000370:	4b0d      	ldr	r3, [pc, #52]	; (80003a8 <EXTI15_10_IRQHandler+0xc8>)
 8000372:	695b      	ldr	r3, [r3, #20]
 8000374:	4a0c      	ldr	r2, [pc, #48]	; (80003a8 <EXTI15_10_IRQHandler+0xc8>)
 8000376:	f443 4380 	orr.w	r3, r3, #16384	; 0x4000
 800037a:	6153      	str	r3, [r2, #20]
		GP_IRQ_CallBack[14]();
 800037c:	4b0b      	ldr	r3, [pc, #44]	; (80003ac <EXTI15_10_IRQHandler+0xcc>)
 800037e:	6b9b      	ldr	r3, [r3, #56]	; 0x38
 8000380:	4798      	blx	r3
}
 8000382:	e00e      	b.n	80003a2 <EXTI15_10_IRQHandler+0xc2>
	else if( EXTI->EXTI_PR & (1<<15))
 8000384:	4b08      	ldr	r3, [pc, #32]	; (80003a8 <EXTI15_10_IRQHandler+0xc8>)
 8000386:	695b      	ldr	r3, [r3, #20]
 8000388:	f403 4300 	and.w	r3, r3, #32768	; 0x8000
 800038c:	2b00      	cmp	r3, #0
 800038e:	d008      	beq.n	80003a2 <EXTI15_10_IRQHandler+0xc2>
		EXTI->EXTI_PR |= (1<<15); //WRITE 1 TO CLEAR
 8000390:	4b05      	ldr	r3, [pc, #20]	; (80003a8 <EXTI15_10_IRQHandler+0xc8>)
 8000392:	695b      	ldr	r3, [r3, #20]
 8000394:	4a04      	ldr	r2, [pc, #16]	; (80003a8 <EXTI15_10_IRQHandler+0xc8>)
 8000396:	f443 4300 	orr.w	r3, r3, #32768	; 0x8000
 800039a:	6153      	str	r3, [r2, #20]
		GP_IRQ_CallBack[15]();
 800039c:	4b03      	ldr	r3, [pc, #12]	; (80003ac <EXTI15_10_IRQHandler+0xcc>)
 800039e:	6bdb      	ldr	r3, [r3, #60]	; 0x3c
 80003a0:	4798      	blx	r3
}
 80003a2:	bf00      	nop
 80003a4:	bd80      	pop	{r7, pc}
 80003a6:	bf00      	nop
 80003a8:	40010400 	.word	0x40010400
 80003ac:	20000040 	.word	0x20000040

080003b0 <I2C1_ER_IRQHandler>:
 * ======================================================================================================================
 */

//Not supported
void I2C1_ER_IRQHandler(void)
{
 80003b0:	b480      	push	{r7}
 80003b2:	af00      	add	r7, sp, #0


}
 80003b4:	bf00      	nop
 80003b6:	46bd      	mov	sp, r7
 80003b8:	bc80      	pop	{r7}
 80003ba:	4770      	bx	lr

080003bc <I2C1_EV_IRQHandler>:

void I2C1_EV_IRQHandler(void)
{
 80003bc:	b480      	push	{r7}
 80003be:	af00      	add	r7, sp, #0

}
 80003c0:	bf00      	nop
 80003c2:	46bd      	mov	sp, r7
 80003c4:	bc80      	pop	{r7}
 80003c6:	4770      	bx	lr

080003c8 <I2C2_ER_IRQHandler>:

void I2C2_ER_IRQHandler(void)
{
 80003c8:	b480      	push	{r7}
 80003ca:	af00      	add	r7, sp, #0


}
 80003cc:	bf00      	nop
 80003ce:	46bd      	mov	sp, r7
 80003d0:	bc80      	pop	{r7}
 80003d2:	4770      	bx	lr

080003d4 <I2C2_EV_IRQHandler>:

void I2C2_EV_IRQHandler(void)
{
 80003d4:	b480      	push	{r7}
 80003d6:	af00      	add	r7, sp, #0

}
 80003d8:	bf00      	nop
 80003da:	46bd      	mov	sp, r7
 80003dc:	bc80      	pop	{r7}
 80003de:	4770      	bx	lr

080003e0 <SPI1_IRQHandler>:
//------------------<< ISR >>--------------------
//-----------------------------------------------


void SPI1_IRQHandler(void)
{
 80003e0:	b580      	push	{r7, lr}
 80003e2:	b082      	sub	sp, #8
 80003e4:	af00      	add	r7, sp, #0
	Interrupt_flags_bits_t IRQ;
	IRQ.Receive_buffer_not_empty_flag = ( ( SPI1->SPI_SR & (1<<0) ) >> 0 );
 80003e6:	4b0e      	ldr	r3, [pc, #56]	; (8000420 <SPI1_IRQHandler+0x40>)
 80003e8:	689b      	ldr	r3, [r3, #8]
 80003ea:	f003 0301 	and.w	r3, r3, #1
 80003ee:	b2da      	uxtb	r2, r3
 80003f0:	793b      	ldrb	r3, [r7, #4]
 80003f2:	f362 0300 	bfi	r3, r2, #0, #1
 80003f6:	713b      	strb	r3, [r7, #4]
	IRQ.Transmit_buffer_empty_flag = ( ( SPI1->SPI_SR & (1<<1) ) >> 1 );
 80003f8:	4b09      	ldr	r3, [pc, #36]	; (8000420 <SPI1_IRQHandler+0x40>)
 80003fa:	689b      	ldr	r3, [r3, #8]
 80003fc:	085b      	lsrs	r3, r3, #1
 80003fe:	f003 0301 	and.w	r3, r3, #1
 8000402:	b2da      	uxtb	r2, r3
 8000404:	793b      	ldrb	r3, [r7, #4]
 8000406:	f362 0341 	bfi	r3, r2, #1, #1
 800040a:	713b      	strb	r3, [r7, #4]

	Global_SPI_Config_s->CallBack_PTR (&IRQ);
 800040c:	4b05      	ldr	r3, [pc, #20]	; (8000424 <SPI1_IRQHandler+0x44>)
 800040e:	681b      	ldr	r3, [r3, #0]
 8000410:	695b      	ldr	r3, [r3, #20]
 8000412:	1d3a      	adds	r2, r7, #4
 8000414:	4610      	mov	r0, r2
 8000416:	4798      	blx	r3



}
 8000418:	bf00      	nop
 800041a:	3708      	adds	r7, #8
 800041c:	46bd      	mov	sp, r7
 800041e:	bd80      	pop	{r7, pc}
 8000420:	40013000 	.word	0x40013000
 8000424:	2000007c 	.word	0x2000007c

08000428 <SPI2_IRQHandler>:

void SPI2_IRQHandler(void)
{
 8000428:	b580      	push	{r7, lr}
 800042a:	b082      	sub	sp, #8
 800042c:	af00      	add	r7, sp, #0
	Interrupt_flags_bits_t IRQ;
	IRQ.Receive_buffer_not_empty_flag = ( ( SPI2->SPI_SR & (1<<0) ) >> 0 );
 800042e:	4b0e      	ldr	r3, [pc, #56]	; (8000468 <SPI2_IRQHandler+0x40>)
 8000430:	689b      	ldr	r3, [r3, #8]
 8000432:	f003 0301 	and.w	r3, r3, #1
 8000436:	b2da      	uxtb	r2, r3
 8000438:	793b      	ldrb	r3, [r7, #4]
 800043a:	f362 0300 	bfi	r3, r2, #0, #1
 800043e:	713b      	strb	r3, [r7, #4]
	IRQ.Transmit_buffer_empty_flag = ( ( SPI2->SPI_SR & (1<<1) ) >> 1 );
 8000440:	4b09      	ldr	r3, [pc, #36]	; (8000468 <SPI2_IRQHandler+0x40>)
 8000442:	689b      	ldr	r3, [r3, #8]
 8000444:	085b      	lsrs	r3, r3, #1
 8000446:	f003 0301 	and.w	r3, r3, #1
 800044a:	b2da      	uxtb	r2, r3
 800044c:	793b      	ldrb	r3, [r7, #4]
 800044e:	f362 0341 	bfi	r3, r2, #1, #1
 8000452:	713b      	strb	r3, [r7, #4]

	Global_SPI_Config_s->CallBack_PTR (&IRQ);
 8000454:	4b05      	ldr	r3, [pc, #20]	; (800046c <SPI2_IRQHandler+0x44>)
 8000456:	681b      	ldr	r3, [r3, #0]
 8000458:	695b      	ldr	r3, [r3, #20]
 800045a:	1d3a      	adds	r2, r7, #4
 800045c:	4610      	mov	r0, r2
 800045e:	4798      	blx	r3

}
 8000460:	bf00      	nop
 8000462:	3708      	adds	r7, #8
 8000464:	46bd      	mov	sp, r7
 8000466:	bd80      	pop	{r7, pc}
 8000468:	40003800 	.word	0x40003800
 800046c:	2000007c 	.word	0x2000007c

08000470 <USART1_IRQHandler>:

//-----------------------------------------------
//------------------<< ISR >>--------------------
//-----------------------------------------------
void USART1_IRQHandler(void)
{
 8000470:	b580      	push	{r7, lr}
 8000472:	b082      	sub	sp, #8
 8000474:	af00      	add	r7, sp, #0
	interrupts_Bits IRQ = { ( (USART1->USART_SR) & (0b1<<5) ) >> 5 , ( (USART1->USART_SR) & (0b1<<6) ) >> 6 , ( (USART1->USART_SR) & (0b1<<7) ) >> 7};
 8000476:	2300      	movs	r3, #0
 8000478:	713b      	strb	r3, [r7, #4]
 800047a:	4b14      	ldr	r3, [pc, #80]	; (80004cc <USART1_IRQHandler+0x5c>)
 800047c:	681b      	ldr	r3, [r3, #0]
 800047e:	095b      	lsrs	r3, r3, #5
 8000480:	f003 0301 	and.w	r3, r3, #1
 8000484:	b2da      	uxtb	r2, r3
 8000486:	793b      	ldrb	r3, [r7, #4]
 8000488:	f362 0300 	bfi	r3, r2, #0, #1
 800048c:	713b      	strb	r3, [r7, #4]
 800048e:	4b0f      	ldr	r3, [pc, #60]	; (80004cc <USART1_IRQHandler+0x5c>)
 8000490:	681b      	ldr	r3, [r3, #0]
 8000492:	099b      	lsrs	r3, r3, #6
 8000494:	f003 0301 	and.w	r3, r3, #1
 8000498:	b2da      	uxtb	r2, r3
 800049a:	793b      	ldrb	r3, [r7, #4]
 800049c:	f362 0341 	bfi	r3, r2, #1, #1
 80004a0:	713b      	strb	r3, [r7, #4]
 80004a2:	4b0a      	ldr	r3, [pc, #40]	; (80004cc <USART1_IRQHandler+0x5c>)
 80004a4:	681b      	ldr	r3, [r3, #0]
 80004a6:	09db      	lsrs	r3, r3, #7
 80004a8:	f003 0301 	and.w	r3, r3, #1
 80004ac:	b2da      	uxtb	r2, r3
 80004ae:	793b      	ldrb	r3, [r7, #4]
 80004b0:	f362 0382 	bfi	r3, r2, #2, #1
 80004b4:	713b      	strb	r3, [r7, #4]
	Global_USART_Config_s->CallBack_FN (&IRQ);
 80004b6:	4b06      	ldr	r3, [pc, #24]	; (80004d0 <USART1_IRQHandler+0x60>)
 80004b8:	681b      	ldr	r3, [r3, #0]
 80004ba:	695b      	ldr	r3, [r3, #20]
 80004bc:	1d3a      	adds	r2, r7, #4
 80004be:	4610      	mov	r0, r2
 80004c0:	4798      	blx	r3
}
 80004c2:	bf00      	nop
 80004c4:	3708      	adds	r7, #8
 80004c6:	46bd      	mov	sp, r7
 80004c8:	bd80      	pop	{r7, pc}
 80004ca:	bf00      	nop
 80004cc:	40013800 	.word	0x40013800
 80004d0:	20000024 	.word	0x20000024

080004d4 <task1>:


uint8_t Task1LED,Task2LED,Task3LED,Task4LED=0;


void task1(void) {
 80004d4:	b580      	push	{r7, lr}
 80004d6:	af00      	add	r7, sp, #0
	static int count =0;
	while(1)
	{
		//Task 1 code
		Task1LED ^= 1;
 80004d8:	4b12      	ldr	r3, [pc, #72]	; (8000524 <task1+0x50>)
 80004da:	781b      	ldrb	r3, [r3, #0]
 80004dc:	f083 0301 	eor.w	r3, r3, #1
 80004e0:	b2da      	uxtb	r2, r3
 80004e2:	4b10      	ldr	r3, [pc, #64]	; (8000524 <task1+0x50>)
 80004e4:	701a      	strb	r2, [r3, #0]
		count++;
 80004e6:	4b10      	ldr	r3, [pc, #64]	; (8000528 <task1+0x54>)
 80004e8:	681b      	ldr	r3, [r3, #0]
 80004ea:	3301      	adds	r3, #1
 80004ec:	4a0e      	ldr	r2, [pc, #56]	; (8000528 <task1+0x54>)
 80004ee:	6013      	str	r3, [r2, #0]
		if(count == 100)
 80004f0:	4b0d      	ldr	r3, [pc, #52]	; (8000528 <task1+0x54>)
 80004f2:	681b      	ldr	r3, [r3, #0]
 80004f4:	2b64      	cmp	r3, #100	; 0x64
 80004f6:	d10a      	bne.n	800050e <task1+0x3a>
		{
			teraRTOS_AcquireMutex(&mutex1, &Task1);
 80004f8:	490c      	ldr	r1, [pc, #48]	; (800052c <task1+0x58>)
 80004fa:	480d      	ldr	r0, [pc, #52]	; (8000530 <task1+0x5c>)
 80004fc:	f000 fdd2 	bl	80010a4 <teraRTOS_AcquireMutex>
			teraRTOS_ActivateTask(&Task4);
 8000500:	480c      	ldr	r0, [pc, #48]	; (8000534 <task1+0x60>)
 8000502:	f000 fd39 	bl	8000f78 <teraRTOS_ActivateTask>
			teraRTOS_AcquireMutex(&mutex2, &Task1);
 8000506:	4909      	ldr	r1, [pc, #36]	; (800052c <task1+0x58>)
 8000508:	480b      	ldr	r0, [pc, #44]	; (8000538 <task1+0x64>)
 800050a:	f000 fdcb 	bl	80010a4 <teraRTOS_AcquireMutex>

		}
		if(count == 200)
 800050e:	4b06      	ldr	r3, [pc, #24]	; (8000528 <task1+0x54>)
 8000510:	681b      	ldr	r3, [r3, #0]
 8000512:	2bc8      	cmp	r3, #200	; 0xc8
 8000514:	d1e0      	bne.n	80004d8 <task1+0x4>
		{
			count =0;
 8000516:	4b04      	ldr	r3, [pc, #16]	; (8000528 <task1+0x54>)
 8000518:	2200      	movs	r2, #0
 800051a:	601a      	str	r2, [r3, #0]
			teraRTOS_ReleaseMutex(&mutex1);
 800051c:	4804      	ldr	r0, [pc, #16]	; (8000530 <task1+0x5c>)
 800051e:	f000 fde0 	bl	80010e2 <teraRTOS_ReleaseMutex>
		Task1LED ^= 1;
 8000522:	e7d9      	b.n	80004d8 <task1+0x4>
 8000524:	20000180 	.word	0x20000180
 8000528:	2000002c 	.word	0x2000002c
 800052c:	200000f4 	.word	0x200000f4
 8000530:	200001c8 	.word	0x200001c8
 8000534:	20000080 	.word	0x20000080
 8000538:	200000c4 	.word	0x200000c4

0800053c <task2>:
		//		teraRTOS_TaskWait(100, &Task1);

	}
}

void task2(void) {
 800053c:	b580      	push	{r7, lr}
 800053e:	af00      	add	r7, sp, #0

	static int count =0;
	while(1)
	{
		//Task 1 code
		Task2LED ^= 1;
 8000540:	4b0e      	ldr	r3, [pc, #56]	; (800057c <task2+0x40>)
 8000542:	781b      	ldrb	r3, [r3, #0]
 8000544:	f083 0301 	eor.w	r3, r3, #1
 8000548:	b2da      	uxtb	r2, r3
 800054a:	4b0c      	ldr	r3, [pc, #48]	; (800057c <task2+0x40>)
 800054c:	701a      	strb	r2, [r3, #0]
		count++;
 800054e:	4b0c      	ldr	r3, [pc, #48]	; (8000580 <task2+0x44>)
 8000550:	681b      	ldr	r3, [r3, #0]
 8000552:	3301      	adds	r3, #1
 8000554:	4a0a      	ldr	r2, [pc, #40]	; (8000580 <task2+0x44>)
 8000556:	6013      	str	r3, [r2, #0]
		if(count == 100)
 8000558:	4b09      	ldr	r3, [pc, #36]	; (8000580 <task2+0x44>)
 800055a:	681b      	ldr	r3, [r3, #0]
 800055c:	2b64      	cmp	r3, #100	; 0x64
 800055e:	d102      	bne.n	8000566 <task2+0x2a>
		{
			teraRTOS_ActivateTask(&Task3);
 8000560:	4808      	ldr	r0, [pc, #32]	; (8000584 <task2+0x48>)
 8000562:	f000 fd09 	bl	8000f78 <teraRTOS_ActivateTask>
		}
		if(count == 200)
 8000566:	4b06      	ldr	r3, [pc, #24]	; (8000580 <task2+0x44>)
 8000568:	681b      	ldr	r3, [r3, #0]
 800056a:	2bc8      	cmp	r3, #200	; 0xc8
 800056c:	d1e8      	bne.n	8000540 <task2+0x4>
		{
			count =0;
 800056e:	4b04      	ldr	r3, [pc, #16]	; (8000580 <task2+0x44>)
 8000570:	2200      	movs	r2, #0
 8000572:	601a      	str	r2, [r3, #0]
			teraRTOS_TerminateTask(&Task2);
 8000574:	4804      	ldr	r0, [pc, #16]	; (8000588 <task2+0x4c>)
 8000576:	f000 fd11 	bl	8000f9c <teraRTOS_TerminateTask>
		Task2LED ^= 1;
 800057a:	e7e1      	b.n	8000540 <task2+0x4>
 800057c:	20000138 	.word	0x20000138
 8000580:	20000030 	.word	0x20000030
 8000584:	2000013c 	.word	0x2000013c
 8000588:	20000184 	.word	0x20000184

0800058c <task3>:
		//		teraRTOS_TaskWait(100, &Task1);

	}
}

void task3(void) {
 800058c:	b580      	push	{r7, lr}
 800058e:	af00      	add	r7, sp, #0

	static int count =0;
	while(1)
	{
		//Task 3 code
		Task3LED ^= 1;
 8000590:	4b0e      	ldr	r3, [pc, #56]	; (80005cc <task3+0x40>)
 8000592:	781b      	ldrb	r3, [r3, #0]
 8000594:	f083 0301 	eor.w	r3, r3, #1
 8000598:	b2da      	uxtb	r2, r3
 800059a:	4b0c      	ldr	r3, [pc, #48]	; (80005cc <task3+0x40>)
 800059c:	701a      	strb	r2, [r3, #0]
		count++;
 800059e:	4b0c      	ldr	r3, [pc, #48]	; (80005d0 <task3+0x44>)
 80005a0:	681b      	ldr	r3, [r3, #0]
 80005a2:	3301      	adds	r3, #1
 80005a4:	4a0a      	ldr	r2, [pc, #40]	; (80005d0 <task3+0x44>)
 80005a6:	6013      	str	r3, [r2, #0]
		if(count == 100)
 80005a8:	4b09      	ldr	r3, [pc, #36]	; (80005d0 <task3+0x44>)
 80005aa:	681b      	ldr	r3, [r3, #0]
 80005ac:	2b64      	cmp	r3, #100	; 0x64
 80005ae:	d102      	bne.n	80005b6 <task3+0x2a>
		{
			teraRTOS_ActivateTask(&Task4);
 80005b0:	4808      	ldr	r0, [pc, #32]	; (80005d4 <task3+0x48>)
 80005b2:	f000 fce1 	bl	8000f78 <teraRTOS_ActivateTask>
		}
		if(count == 200)
 80005b6:	4b06      	ldr	r3, [pc, #24]	; (80005d0 <task3+0x44>)
 80005b8:	681b      	ldr	r3, [r3, #0]
 80005ba:	2bc8      	cmp	r3, #200	; 0xc8
 80005bc:	d1e8      	bne.n	8000590 <task3+0x4>
		{
			count =0;
 80005be:	4b04      	ldr	r3, [pc, #16]	; (80005d0 <task3+0x44>)
 80005c0:	2200      	movs	r2, #0
 80005c2:	601a      	str	r2, [r3, #0]
			teraRTOS_TerminateTask(&Task3);
 80005c4:	4804      	ldr	r0, [pc, #16]	; (80005d8 <task3+0x4c>)
 80005c6:	f000 fce9 	bl	8000f9c <teraRTOS_TerminateTask>
		Task3LED ^= 1;
 80005ca:	e7e1      	b.n	8000590 <task3+0x4>
 80005cc:	200001f8 	.word	0x200001f8
 80005d0:	20000034 	.word	0x20000034
 80005d4:	20000080 	.word	0x20000080
 80005d8:	2000013c 	.word	0x2000013c

080005dc <task4>:
		//		teraRTOS_TaskWait(100, &Task1);

	}
}

void task4(void) {
 80005dc:	b580      	push	{r7, lr}
 80005de:	af00      	add	r7, sp, #0

	static int count =0;
	while(1)
	{
		//Task 4 code
		Task4LED ^= 1;
 80005e0:	4b12      	ldr	r3, [pc, #72]	; (800062c <task4+0x50>)
 80005e2:	781b      	ldrb	r3, [r3, #0]
 80005e4:	f083 0301 	eor.w	r3, r3, #1
 80005e8:	b2da      	uxtb	r2, r3
 80005ea:	4b10      	ldr	r3, [pc, #64]	; (800062c <task4+0x50>)
 80005ec:	701a      	strb	r2, [r3, #0]
		count++;
 80005ee:	4b10      	ldr	r3, [pc, #64]	; (8000630 <task4+0x54>)
 80005f0:	681b      	ldr	r3, [r3, #0]
 80005f2:	3301      	adds	r3, #1
 80005f4:	4a0e      	ldr	r2, [pc, #56]	; (8000630 <task4+0x54>)
 80005f6:	6013      	str	r3, [r2, #0]
		if(count == 3)
 80005f8:	4b0d      	ldr	r3, [pc, #52]	; (8000630 <task4+0x54>)
 80005fa:	681b      	ldr	r3, [r3, #0]
 80005fc:	2b03      	cmp	r3, #3
 80005fe:	d107      	bne.n	8000610 <task4+0x34>
		{
			teraRTOS_AcquireMutex(&mutex2, &Task4);
 8000600:	490c      	ldr	r1, [pc, #48]	; (8000634 <task4+0x58>)
 8000602:	480d      	ldr	r0, [pc, #52]	; (8000638 <task4+0x5c>)
 8000604:	f000 fd4e 	bl	80010a4 <teraRTOS_AcquireMutex>
			teraRTOS_AcquireMutex(&mutex1, &Task4);
 8000608:	490a      	ldr	r1, [pc, #40]	; (8000634 <task4+0x58>)
 800060a:	480c      	ldr	r0, [pc, #48]	; (800063c <task4+0x60>)
 800060c:	f000 fd4a 	bl	80010a4 <teraRTOS_AcquireMutex>
		}
		if(count == 200)
 8000610:	4b07      	ldr	r3, [pc, #28]	; (8000630 <task4+0x54>)
 8000612:	681b      	ldr	r3, [r3, #0]
 8000614:	2bc8      	cmp	r3, #200	; 0xc8
 8000616:	d1e3      	bne.n	80005e0 <task4+0x4>
		{
			count =0;
 8000618:	4b05      	ldr	r3, [pc, #20]	; (8000630 <task4+0x54>)
 800061a:	2200      	movs	r2, #0
 800061c:	601a      	str	r2, [r3, #0]
			teraRTOS_ReleaseMutex(&mutex1);
 800061e:	4807      	ldr	r0, [pc, #28]	; (800063c <task4+0x60>)
 8000620:	f000 fd5f 	bl	80010e2 <teraRTOS_ReleaseMutex>
			teraRTOS_TerminateTask(&Task4);
 8000624:	4803      	ldr	r0, [pc, #12]	; (8000634 <task4+0x58>)
 8000626:	f000 fcb9 	bl	8000f9c <teraRTOS_TerminateTask>
		Task4LED ^= 1;
 800062a:	e7d9      	b.n	80005e0 <task4+0x4>
 800062c:	20000028 	.word	0x20000028
 8000630:	20000038 	.word	0x20000038
 8000634:	20000080 	.word	0x20000080
 8000638:	200000c4 	.word	0x200000c4
 800063c:	200001c8 	.word	0x200001c8

08000640 <main>:
	}
}



int main(void){
 8000640:	b580      	push	{r7, lr}
 8000642:	b082      	sub	sp, #8
 8000644:	af00      	add	r7, sp, #0

	TERA_RTOS_ErrorType Error;
	//HW INIT (Initialize ClockTree, ResetController)
	HW_init();
 8000646:	f000 f94b 	bl	80008e0 <HW_init>

	if(TERA_RTOS_init() != NoError)
 800064a:	f000 fbc5 	bl	8000dd8 <TERA_RTOS_init>
 800064e:	4603      	mov	r3, r0
 8000650:	2b00      	cmp	r3, #0
 8000652:	d000      	beq.n	8000656 <main+0x16>
		while(1);
 8000654:	e7fe      	b.n	8000654 <main+0x14>

	mutex1.PayloadSize = 3;
 8000656:	4b45      	ldr	r3, [pc, #276]	; (800076c <main+0x12c>)
 8000658:	2203      	movs	r2, #3
 800065a:	605a      	str	r2, [r3, #4]
	mutex1.Payload_P = payload;
 800065c:	4b43      	ldr	r3, [pc, #268]	; (800076c <main+0x12c>)
 800065e:	4a44      	ldr	r2, [pc, #272]	; (8000770 <main+0x130>)
 8000660:	601a      	str	r2, [r3, #0]
	strcpy(mutex1.Mutex_Name,"mutex1");
 8000662:	4b44      	ldr	r3, [pc, #272]	; (8000774 <main+0x134>)
 8000664:	4a44      	ldr	r2, [pc, #272]	; (8000778 <main+0x138>)
 8000666:	e892 0003 	ldmia.w	r2, {r0, r1}
 800066a:	6018      	str	r0, [r3, #0]
 800066c:	3304      	adds	r3, #4
 800066e:	8019      	strh	r1, [r3, #0]
 8000670:	3302      	adds	r3, #2
 8000672:	0c0a      	lsrs	r2, r1, #16
 8000674:	701a      	strb	r2, [r3, #0]

	mutex2.PayloadSize = 3;
 8000676:	4b41      	ldr	r3, [pc, #260]	; (800077c <main+0x13c>)
 8000678:	2203      	movs	r2, #3
 800067a:	605a      	str	r2, [r3, #4]
	mutex2.Payload_P = payload2;
 800067c:	4b3f      	ldr	r3, [pc, #252]	; (800077c <main+0x13c>)
 800067e:	4a40      	ldr	r2, [pc, #256]	; (8000780 <main+0x140>)
 8000680:	601a      	str	r2, [r3, #0]
	strcpy(mutex2.Mutex_Name,"mutex2");
 8000682:	4b40      	ldr	r3, [pc, #256]	; (8000784 <main+0x144>)
 8000684:	4a40      	ldr	r2, [pc, #256]	; (8000788 <main+0x148>)
 8000686:	e892 0003 	ldmia.w	r2, {r0, r1}
 800068a:	6018      	str	r0, [r3, #0]
 800068c:	3304      	adds	r3, #4
 800068e:	8019      	strh	r1, [r3, #0]
 8000690:	3302      	adds	r3, #2
 8000692:	0c0a      	lsrs	r2, r1, #16
 8000694:	701a      	strb	r2, [r3, #0]


	Task1.Stack_Size = 1024;
 8000696:	4b3d      	ldr	r3, [pc, #244]	; (800078c <main+0x14c>)
 8000698:	f44f 6280 	mov.w	r2, #1024	; 0x400
 800069c:	601a      	str	r2, [r3, #0]
	Task1.TaskEntry_Ptr = task1;
 800069e:	4b3b      	ldr	r3, [pc, #236]	; (800078c <main+0x14c>)
 80006a0:	4a3b      	ldr	r2, [pc, #236]	; (8000790 <main+0x150>)
 80006a2:	609a      	str	r2, [r3, #8]
	Task1.Priority = 4;
 80006a4:	4b39      	ldr	r3, [pc, #228]	; (800078c <main+0x14c>)
 80006a6:	2204      	movs	r2, #4
 80006a8:	711a      	strb	r2, [r3, #4]
	strcpy(Task1.TaskName, "Task_1");
 80006aa:	4b3a      	ldr	r3, [pc, #232]	; (8000794 <main+0x154>)
 80006ac:	4a3a      	ldr	r2, [pc, #232]	; (8000798 <main+0x158>)
 80006ae:	e892 0003 	ldmia.w	r2, {r0, r1}
 80006b2:	6018      	str	r0, [r3, #0]
 80006b4:	3304      	adds	r3, #4
 80006b6:	8019      	strh	r1, [r3, #0]
 80006b8:	3302      	adds	r3, #2
 80006ba:	0c0a      	lsrs	r2, r1, #16
 80006bc:	701a      	strb	r2, [r3, #0]

	Task2.Stack_Size = 1024;
 80006be:	4b37      	ldr	r3, [pc, #220]	; (800079c <main+0x15c>)
 80006c0:	f44f 6280 	mov.w	r2, #1024	; 0x400
 80006c4:	601a      	str	r2, [r3, #0]
	Task2.TaskEntry_Ptr = task2;
 80006c6:	4b35      	ldr	r3, [pc, #212]	; (800079c <main+0x15c>)
 80006c8:	4a35      	ldr	r2, [pc, #212]	; (80007a0 <main+0x160>)
 80006ca:	609a      	str	r2, [r3, #8]
	Task2.Priority = 3;
 80006cc:	4b33      	ldr	r3, [pc, #204]	; (800079c <main+0x15c>)
 80006ce:	2203      	movs	r2, #3
 80006d0:	711a      	strb	r2, [r3, #4]
	strcpy(Task2.TaskName, "Task_2");
 80006d2:	4b34      	ldr	r3, [pc, #208]	; (80007a4 <main+0x164>)
 80006d4:	4a34      	ldr	r2, [pc, #208]	; (80007a8 <main+0x168>)
 80006d6:	e892 0003 	ldmia.w	r2, {r0, r1}
 80006da:	6018      	str	r0, [r3, #0]
 80006dc:	3304      	adds	r3, #4
 80006de:	8019      	strh	r1, [r3, #0]
 80006e0:	3302      	adds	r3, #2
 80006e2:	0c0a      	lsrs	r2, r1, #16
 80006e4:	701a      	strb	r2, [r3, #0]

	Task3.Stack_Size = 1024;
 80006e6:	4b31      	ldr	r3, [pc, #196]	; (80007ac <main+0x16c>)
 80006e8:	f44f 6280 	mov.w	r2, #1024	; 0x400
 80006ec:	601a      	str	r2, [r3, #0]
	Task3.TaskEntry_Ptr = task3;
 80006ee:	4b2f      	ldr	r3, [pc, #188]	; (80007ac <main+0x16c>)
 80006f0:	4a2f      	ldr	r2, [pc, #188]	; (80007b0 <main+0x170>)
 80006f2:	609a      	str	r2, [r3, #8]
	Task3.Priority = 2;
 80006f4:	4b2d      	ldr	r3, [pc, #180]	; (80007ac <main+0x16c>)
 80006f6:	2202      	movs	r2, #2
 80006f8:	711a      	strb	r2, [r3, #4]
	strcpy(Task3.TaskName, "Task_3");
 80006fa:	4b2e      	ldr	r3, [pc, #184]	; (80007b4 <main+0x174>)
 80006fc:	4a2e      	ldr	r2, [pc, #184]	; (80007b8 <main+0x178>)
 80006fe:	e892 0003 	ldmia.w	r2, {r0, r1}
 8000702:	6018      	str	r0, [r3, #0]
 8000704:	3304      	adds	r3, #4
 8000706:	8019      	strh	r1, [r3, #0]
 8000708:	3302      	adds	r3, #2
 800070a:	0c0a      	lsrs	r2, r1, #16
 800070c:	701a      	strb	r2, [r3, #0]


	Task4.Stack_Size = 1024;
 800070e:	4b2b      	ldr	r3, [pc, #172]	; (80007bc <main+0x17c>)
 8000710:	f44f 6280 	mov.w	r2, #1024	; 0x400
 8000714:	601a      	str	r2, [r3, #0]
	Task4.TaskEntry_Ptr = task4;
 8000716:	4b29      	ldr	r3, [pc, #164]	; (80007bc <main+0x17c>)
 8000718:	4a29      	ldr	r2, [pc, #164]	; (80007c0 <main+0x180>)
 800071a:	609a      	str	r2, [r3, #8]
	Task4.Priority = 1;
 800071c:	4b27      	ldr	r3, [pc, #156]	; (80007bc <main+0x17c>)
 800071e:	2201      	movs	r2, #1
 8000720:	711a      	strb	r2, [r3, #4]
	strcpy(Task3.TaskName, "Task_4");
 8000722:	4b24      	ldr	r3, [pc, #144]	; (80007b4 <main+0x174>)
 8000724:	4a27      	ldr	r2, [pc, #156]	; (80007c4 <main+0x184>)
 8000726:	e892 0003 	ldmia.w	r2, {r0, r1}
 800072a:	6018      	str	r0, [r3, #0]
 800072c:	3304      	adds	r3, #4
 800072e:	8019      	strh	r1, [r3, #0]
 8000730:	3302      	adds	r3, #2
 8000732:	0c0a      	lsrs	r2, r1, #16
 8000734:	701a      	strb	r2, [r3, #0]

	Error = teraRTOS_CreateTask(&Task1);
 8000736:	4815      	ldr	r0, [pc, #84]	; (800078c <main+0x14c>)
 8000738:	f000 fbc8 	bl	8000ecc <teraRTOS_CreateTask>
 800073c:	4603      	mov	r3, r0
 800073e:	71fb      	strb	r3, [r7, #7]
	Error = teraRTOS_CreateTask(&Task2);
 8000740:	4816      	ldr	r0, [pc, #88]	; (800079c <main+0x15c>)
 8000742:	f000 fbc3 	bl	8000ecc <teraRTOS_CreateTask>
 8000746:	4603      	mov	r3, r0
 8000748:	71fb      	strb	r3, [r7, #7]
	Error = teraRTOS_CreateTask(&Task3);
 800074a:	4818      	ldr	r0, [pc, #96]	; (80007ac <main+0x16c>)
 800074c:	f000 fbbe 	bl	8000ecc <teraRTOS_CreateTask>
 8000750:	4603      	mov	r3, r0
 8000752:	71fb      	strb	r3, [r7, #7]
	Error = teraRTOS_CreateTask(&Task4);
 8000754:	4819      	ldr	r0, [pc, #100]	; (80007bc <main+0x17c>)
 8000756:	f000 fbb9 	bl	8000ecc <teraRTOS_CreateTask>
 800075a:	4603      	mov	r3, r0
 800075c:	71fb      	strb	r3, [r7, #7]


	teraRTOS_ActivateTask(&Task1);
 800075e:	480b      	ldr	r0, [pc, #44]	; (800078c <main+0x14c>)
 8000760:	f000 fc0a 	bl	8000f78 <teraRTOS_ActivateTask>
	//	teraRTOS_ActivateTask(&Task3);
	//	teraRTOS_ActivateTask(&Task4);



	teraRTOS_START();
 8000764:	f000 fc2c 	bl	8000fc0 <teraRTOS_START>




	while(1)
 8000768:	e7fe      	b.n	8000768 <main+0x128>
 800076a:	bf00      	nop
 800076c:	200001c8 	.word	0x200001c8
 8000770:	20000000 	.word	0x20000000
 8000774:	200001d8 	.word	0x200001d8
 8000778:	080012bc 	.word	0x080012bc
 800077c:	200000c4 	.word	0x200000c4
 8000780:	20000004 	.word	0x20000004
 8000784:	200000d4 	.word	0x200000d4
 8000788:	080012c4 	.word	0x080012c4
 800078c:	200000f4 	.word	0x200000f4
 8000790:	080004d5 	.word	0x080004d5
 8000794:	20000110 	.word	0x20000110
 8000798:	080012cc 	.word	0x080012cc
 800079c:	20000184 	.word	0x20000184
 80007a0:	0800053d 	.word	0x0800053d
 80007a4:	200001a0 	.word	0x200001a0
 80007a8:	080012d4 	.word	0x080012d4
 80007ac:	2000013c 	.word	0x2000013c
 80007b0:	0800058d 	.word	0x0800058d
 80007b4:	20000158 	.word	0x20000158
 80007b8:	080012dc 	.word	0x080012dc
 80007bc:	20000080 	.word	0x20000080
 80007c0:	080005dd 	.word	0x080005dd
 80007c4:	080012e4 	.word	0x080012e4

080007c8 <Reset_Handler>:

  .section .text.Reset_Handler
  .weak Reset_Handler
  .type Reset_Handler, %function
Reset_Handler:
  ldr   r0, =_estack
 80007c8:	480d      	ldr	r0, [pc, #52]	; (8000800 <LoopForever+0x2>)
  mov   sp, r0          /* set stack pointer */
 80007ca:	4685      	mov	sp, r0
/* Call the clock system intitialization function.*/
  bl  SystemInit
 80007cc:	f3af 8000 	nop.w

/* Copy the data segment initializers from flash to SRAM */
  ldr r0, =_sdata
 80007d0:	480c      	ldr	r0, [pc, #48]	; (8000804 <LoopForever+0x6>)
  ldr r1, =_edata
 80007d2:	490d      	ldr	r1, [pc, #52]	; (8000808 <LoopForever+0xa>)
  ldr r2, =_sidata
 80007d4:	4a0d      	ldr	r2, [pc, #52]	; (800080c <LoopForever+0xe>)
  movs r3, #0
 80007d6:	2300      	movs	r3, #0
  b LoopCopyDataInit
 80007d8:	e002      	b.n	80007e0 <LoopCopyDataInit>

080007da <CopyDataInit>:

CopyDataInit:
  ldr r4, [r2, r3]
 80007da:	58d4      	ldr	r4, [r2, r3]
  str r4, [r0, r3]
 80007dc:	50c4      	str	r4, [r0, r3]
  adds r3, r3, #4
 80007de:	3304      	adds	r3, #4

080007e0 <LoopCopyDataInit>:

LoopCopyDataInit:
  adds r4, r0, r3
 80007e0:	18c4      	adds	r4, r0, r3
  cmp r4, r1
 80007e2:	428c      	cmp	r4, r1
  bcc CopyDataInit
 80007e4:	d3f9      	bcc.n	80007da <CopyDataInit>

/* Zero fill the bss segment. */
  ldr r2, =_sbss
 80007e6:	4a0a      	ldr	r2, [pc, #40]	; (8000810 <LoopForever+0x12>)
  ldr r4, =_ebss
 80007e8:	4c0a      	ldr	r4, [pc, #40]	; (8000814 <LoopForever+0x16>)
  movs r3, #0
 80007ea:	2300      	movs	r3, #0
  b LoopFillZerobss
 80007ec:	e001      	b.n	80007f2 <LoopFillZerobss>

080007ee <FillZerobss>:

FillZerobss:
  str  r3, [r2]
 80007ee:	6013      	str	r3, [r2, #0]
  adds r2, r2, #4
 80007f0:	3204      	adds	r2, #4

080007f2 <LoopFillZerobss>:

LoopFillZerobss:
  cmp r2, r4
 80007f2:	42a2      	cmp	r2, r4
  bcc FillZerobss
 80007f4:	d3fb      	bcc.n	80007ee <FillZerobss>

/* Call static constructors */
  bl __libc_init_array
 80007f6:	f000 fd31 	bl	800125c <__libc_init_array>
/* Call the application's entry point.*/
  bl main
 80007fa:	f7ff ff21 	bl	8000640 <main>

080007fe <LoopForever>:

LoopForever:
    b LoopForever
 80007fe:	e7fe      	b.n	80007fe <LoopForever>
  ldr   r0, =_estack
 8000800:	20002800 	.word	0x20002800
  ldr r0, =_sdata
 8000804:	20000000 	.word	0x20000000
  ldr r1, =_edata
 8000808:	20000008 	.word	0x20000008
  ldr r2, =_sidata
 800080c:	08001300 	.word	0x08001300
  ldr r2, =_sbss
 8000810:	20000008 	.word	0x20000008
  ldr r4, =_ebss
 8000814:	20000594 	.word	0x20000594

08000818 <ADC1_2_IRQHandler>:
 * @retval : None
*/
  .section .text.Default_Handler,"ax",%progbits
Default_Handler:
Infinite_Loop:
  b Infinite_Loop
 8000818:	e7fe      	b.n	8000818 <ADC1_2_IRQHandler>
	...

0800081c <__NVIC_SetPriority>:
  \param [in]      IRQn  Interrupt number.
  \param [in]  priority  Priority to set.
  \note    The priority cannot be set for every processor exception.
 */
__STATIC_INLINE void __NVIC_SetPriority(IRQn_Type IRQn, uint32_t priority)
{
 800081c:	b480      	push	{r7}
 800081e:	b083      	sub	sp, #12
 8000820:	af00      	add	r7, sp, #0
 8000822:	4603      	mov	r3, r0
 8000824:	6039      	str	r1, [r7, #0]
 8000826:	71fb      	strb	r3, [r7, #7]
  if ((int32_t)(IRQn) >= 0)
 8000828:	f997 3007 	ldrsb.w	r3, [r7, #7]
 800082c:	2b00      	cmp	r3, #0
 800082e:	db0a      	blt.n	8000846 <__NVIC_SetPriority+0x2a>
  {
    NVIC->IP[((uint32_t)IRQn)]               = (uint8_t)((priority << (8U - __NVIC_PRIO_BITS)) & (uint32_t)0xFFUL);
 8000830:	683b      	ldr	r3, [r7, #0]
 8000832:	b2da      	uxtb	r2, r3
 8000834:	490c      	ldr	r1, [pc, #48]	; (8000868 <__NVIC_SetPriority+0x4c>)
 8000836:	f997 3007 	ldrsb.w	r3, [r7, #7]
 800083a:	0152      	lsls	r2, r2, #5
 800083c:	b2d2      	uxtb	r2, r2
 800083e:	440b      	add	r3, r1
 8000840:	f883 2300 	strb.w	r2, [r3, #768]	; 0x300
  }
  else
  {
    SCB->SHP[(((uint32_t)IRQn) & 0xFUL)-4UL] = (uint8_t)((priority << (8U - __NVIC_PRIO_BITS)) & (uint32_t)0xFFUL);
  }
}
 8000844:	e00a      	b.n	800085c <__NVIC_SetPriority+0x40>
    SCB->SHP[(((uint32_t)IRQn) & 0xFUL)-4UL] = (uint8_t)((priority << (8U - __NVIC_PRIO_BITS)) & (uint32_t)0xFFUL);
 8000846:	683b      	ldr	r3, [r7, #0]
 8000848:	b2da      	uxtb	r2, r3
 800084a:	4908      	ldr	r1, [pc, #32]	; (800086c <__NVIC_SetPriority+0x50>)
 800084c:	79fb      	ldrb	r3, [r7, #7]
 800084e:	f003 030f 	and.w	r3, r3, #15
 8000852:	3b04      	subs	r3, #4
 8000854:	0152      	lsls	r2, r2, #5
 8000856:	b2d2      	uxtb	r2, r2
 8000858:	440b      	add	r3, r1
 800085a:	761a      	strb	r2, [r3, #24]
}
 800085c:	bf00      	nop
 800085e:	370c      	adds	r7, #12
 8000860:	46bd      	mov	sp, r7
 8000862:	bc80      	pop	{r7}
 8000864:	4770      	bx	lr
 8000866:	bf00      	nop
 8000868:	e000e100 	.word	0xe000e100
 800086c:	e000ed00 	.word	0xe000ed00

08000870 <SysTick_Config>:
  \note    When the variable <b>__Vendor_SysTickConfig</b> is set to 1, then the
           function <b>SysTick_Config</b> is not included. In this case, the file <b><i>device</i>.h</b>
           must contain a vendor-specific implementation of this function.
 */
__STATIC_INLINE uint32_t SysTick_Config(uint32_t ticks)
{
 8000870:	b580      	push	{r7, lr}
 8000872:	b082      	sub	sp, #8
 8000874:	af00      	add	r7, sp, #0
 8000876:	6078      	str	r0, [r7, #4]
  if ((ticks - 1UL) > SysTick_LOAD_RELOAD_Msk)
 8000878:	687b      	ldr	r3, [r7, #4]
 800087a:	3b01      	subs	r3, #1
 800087c:	f1b3 7f80 	cmp.w	r3, #16777216	; 0x1000000
 8000880:	d301      	bcc.n	8000886 <SysTick_Config+0x16>
  {
    return (1UL);                                                   /* Reload value impossible */
 8000882:	2301      	movs	r3, #1
 8000884:	e00f      	b.n	80008a6 <SysTick_Config+0x36>
  }

  SysTick->LOAD  = (uint32_t)(ticks - 1UL);                         /* set reload register */
 8000886:	4a0a      	ldr	r2, [pc, #40]	; (80008b0 <SysTick_Config+0x40>)
 8000888:	687b      	ldr	r3, [r7, #4]
 800088a:	3b01      	subs	r3, #1
 800088c:	6053      	str	r3, [r2, #4]
  NVIC_SetPriority (SysTick_IRQn, (1UL << __NVIC_PRIO_BITS) - 1UL); /* set Priority for Systick Interrupt */
 800088e:	2107      	movs	r1, #7
 8000890:	f04f 30ff 	mov.w	r0, #4294967295
 8000894:	f7ff ffc2 	bl	800081c <__NVIC_SetPriority>
  SysTick->VAL   = 0UL;                                             /* Load the SysTick Counter Value */
 8000898:	4b05      	ldr	r3, [pc, #20]	; (80008b0 <SysTick_Config+0x40>)
 800089a:	2200      	movs	r2, #0
 800089c:	609a      	str	r2, [r3, #8]
  SysTick->CTRL  = SysTick_CTRL_CLKSOURCE_Msk |
 800089e:	4b04      	ldr	r3, [pc, #16]	; (80008b0 <SysTick_Config+0x40>)
 80008a0:	2207      	movs	r2, #7
 80008a2:	601a      	str	r2, [r3, #0]
                   SysTick_CTRL_TICKINT_Msk   |
                   SysTick_CTRL_ENABLE_Msk;                         /* Enable SysTick IRQ and SysTick Timer */
  return (0UL);                                                     /* Function successful */
 80008a4:	2300      	movs	r3, #0
}
 80008a6:	4618      	mov	r0, r3
 80008a8:	3708      	adds	r7, #8
 80008aa:	46bd      	mov	sp, r7
 80008ac:	bd80      	pop	{r7, pc}
 80008ae:	bf00      	nop
 80008b0:	e000e010 	.word	0xe000e010

080008b4 <HardFault_Handler>:
extern void Decide_WhatNext(void);


uint8_t SysTickLED =0;

void HardFault_Handler(void) {
 80008b4:	b480      	push	{r7}
 80008b6:	af00      	add	r7, sp, #0

	while(1);
 80008b8:	e7fe      	b.n	80008b8 <HardFault_Handler+0x4>

080008ba <MemManage_Handler>:

}
void MemManage_Handler(void){
 80008ba:	b480      	push	{r7}
 80008bc:	af00      	add	r7, sp, #0

	while(1);
 80008be:	e7fe      	b.n	80008be <MemManage_Handler+0x4>

080008c0 <BusFault_Handler>:

}
void BusFault_Handler(void){
 80008c0:	b480      	push	{r7}
 80008c2:	af00      	add	r7, sp, #0

	while(1);
 80008c4:	e7fe      	b.n	80008c4 <BusFault_Handler+0x4>

080008c6 <UsageFault_Handler>:

}
void UsageFault_Handler(void){
 80008c6:	b480      	push	{r7}
 80008c8:	af00      	add	r7, sp, #0

	while(1);
 80008ca:	e7fe      	b.n	80008ca <UsageFault_Handler+0x4>

080008cc <SVC_Handler>:
}


__attribute ((naked)) void SVC_Handler(void)
{
	__asm("TST LR,0x4");
 80008cc:	f01e 0f04 	tst.w	lr, #4
	__asm("ITE EQ");
 80008d0:	bf0c      	ite	eq
	__asm("MRSEQ R0,MSP");
 80008d2:	f3ef 8008 	mrseq	r0, MSP
	__asm("MRSNE R0,PSP");
 80008d6:	f3ef 8009 	mrsne	r0, PSP
	__asm("B OS_SVC_services");
 80008da:	f000 b93b 	b.w	8000b54 <OS_SVC_services>



}
 80008de:	bf00      	nop

080008e0 <HW_init>:

void HW_init(void)
{
 80008e0:	b580      	push	{r7, lr}
 80008e2:	af00      	add	r7, sp, #0
	// x count -> 1 ms
	// x = 8000 Count

	// Decrease PendSV interrupt priority to be smaller than or equal SysTick Timer
	//SysTick has a priority equal to 14
	__NVIC_SetPriority(PendSV_IRQn, 15);
 80008e4:	210f      	movs	r1, #15
 80008e6:	f06f 0001 	mvn.w	r0, #1
 80008ea:	f7ff ff97 	bl	800081c <__NVIC_SetPriority>



}
 80008ee:	bf00      	nop
 80008f0:	bd80      	pop	{r7, pc}
	...

080008f4 <trigger_OS_PendSV>:
void trigger_OS_PendSV(void){
 80008f4:	b480      	push	{r7}
 80008f6:	af00      	add	r7, sp, #0

	SCB->ICSR |= SCB_ICSR_PENDSVSET_Msk;
 80008f8:	4b04      	ldr	r3, [pc, #16]	; (800090c <trigger_OS_PendSV+0x18>)
 80008fa:	685b      	ldr	r3, [r3, #4]
 80008fc:	4a03      	ldr	r2, [pc, #12]	; (800090c <trigger_OS_PendSV+0x18>)
 80008fe:	f043 5380 	orr.w	r3, r3, #268435456	; 0x10000000
 8000902:	6053      	str	r3, [r2, #4]
}
 8000904:	bf00      	nop
 8000906:	46bd      	mov	sp, r7
 8000908:	bc80      	pop	{r7}
 800090a:	4770      	bx	lr
 800090c:	e000ed00 	.word	0xe000ed00

08000910 <Start_Ticker>:


void Start_Ticker()
{
 8000910:	b580      	push	{r7, lr}
 8000912:	af00      	add	r7, sp, #0
	//8 MHZ
	// 1 count -> 0.125 us
	// x count -> 1 ms
	// x = 8000 Count

	SysTick_Config(8000);
 8000914:	f44f 50fa 	mov.w	r0, #8000	; 0x1f40
 8000918:	f7ff ffaa 	bl	8000870 <SysTick_Config>

}
 800091c:	bf00      	nop
 800091e:	bd80      	pop	{r7, pc}

08000920 <SysTick_Handler>:

void SysTick_Handler(void)
{
 8000920:	b580      	push	{r7, lr}
 8000922:	af00      	add	r7, sp, #0

	SysTickLED ^= 1;
 8000924:	4b07      	ldr	r3, [pc, #28]	; (8000944 <SysTick_Handler+0x24>)
 8000926:	781b      	ldrb	r3, [r3, #0]
 8000928:	f083 0301 	eor.w	r3, r3, #1
 800092c:	b2da      	uxtb	r2, r3
 800092e:	4b05      	ldr	r3, [pc, #20]	; (8000944 <SysTick_Handler+0x24>)
 8000930:	701a      	strb	r2, [r3, #0]
	teraRTOS_Update_TaskWaitingTime();
 8000932:	f000 fb71 	bl	8001018 <teraRTOS_Update_TaskWaitingTime>
	//Determine Pcurrent&Pnext
	Decide_WhatNext();
 8000936:	f000 f8bb 	bl	8000ab0 <Decide_WhatNext>
	//Context Switch/Restore
	trigger_OS_PendSV();
 800093a:	f7ff ffdb 	bl	80008f4 <trigger_OS_PendSV>

}
 800093e:	bf00      	nop
 8000940:	bd80      	pop	{r7, pc}
 8000942:	bf00      	nop
 8000944:	2000003c 	.word	0x2000003c

08000948 <BubbleSort>:
	SVC_WaitingTask
}SVC_ID;


//Handler Mode
void BubbleSort(){
 8000948:	b480      	push	{r7}
 800094a:	b083      	sub	sp, #12
 800094c:	af00      	add	r7, sp, #0

	uint8_t i=0;
 800094e:	2300      	movs	r3, #0
 8000950:	71fb      	strb	r3, [r7, #7]
	uint8_t j=0;
 8000952:	2300      	movs	r3, #0
 8000954:	71bb      	strb	r3, [r7, #6]
	uint8_t n;


	Task_Creation * temp;
	n = OS_Control.ActiveTasks_number;
 8000956:	4b21      	ldr	r3, [pc, #132]	; (80009dc <BubbleSort+0x94>)
 8000958:	f8d3 319c 	ldr.w	r3, [r3, #412]	; 0x19c
 800095c:	717b      	strb	r3, [r7, #5]

	for(i=0; i<n-1; i++)
 800095e:	2300      	movs	r3, #0
 8000960:	71fb      	strb	r3, [r7, #7]
 8000962:	e030      	b.n	80009c6 <BubbleSort+0x7e>
	{
		for(j=0; j<n-i-1; j++)
 8000964:	2300      	movs	r3, #0
 8000966:	71bb      	strb	r3, [r7, #6]
 8000968:	e023      	b.n	80009b2 <BubbleSort+0x6a>
		{
			if (OS_Control.OS_Tasks[j]->Priority > OS_Control.OS_Tasks[j+1]->Priority)
 800096a:	79bb      	ldrb	r3, [r7, #6]
 800096c:	4a1b      	ldr	r2, [pc, #108]	; (80009dc <BubbleSort+0x94>)
 800096e:	f852 3023 	ldr.w	r3, [r2, r3, lsl #2]
 8000972:	791a      	ldrb	r2, [r3, #4]
 8000974:	79bb      	ldrb	r3, [r7, #6]
 8000976:	3301      	adds	r3, #1
 8000978:	4918      	ldr	r1, [pc, #96]	; (80009dc <BubbleSort+0x94>)
 800097a:	f851 3023 	ldr.w	r3, [r1, r3, lsl #2]
 800097e:	791b      	ldrb	r3, [r3, #4]
 8000980:	429a      	cmp	r2, r3
 8000982:	d913      	bls.n	80009ac <BubbleSort+0x64>
			{
				temp = OS_Control.OS_Tasks[j];
 8000984:	79bb      	ldrb	r3, [r7, #6]
 8000986:	4a15      	ldr	r2, [pc, #84]	; (80009dc <BubbleSort+0x94>)
 8000988:	f852 3023 	ldr.w	r3, [r2, r3, lsl #2]
 800098c:	603b      	str	r3, [r7, #0]
				OS_Control.OS_Tasks[j] = OS_Control.OS_Tasks[j+1];
 800098e:	79bb      	ldrb	r3, [r7, #6]
 8000990:	1c5a      	adds	r2, r3, #1
 8000992:	79bb      	ldrb	r3, [r7, #6]
 8000994:	4911      	ldr	r1, [pc, #68]	; (80009dc <BubbleSort+0x94>)
 8000996:	f851 2022 	ldr.w	r2, [r1, r2, lsl #2]
 800099a:	4910      	ldr	r1, [pc, #64]	; (80009dc <BubbleSort+0x94>)
 800099c:	f841 2023 	str.w	r2, [r1, r3, lsl #2]
				OS_Control.OS_Tasks[j+1] = temp;
 80009a0:	79bb      	ldrb	r3, [r7, #6]
 80009a2:	3301      	adds	r3, #1
 80009a4:	490d      	ldr	r1, [pc, #52]	; (80009dc <BubbleSort+0x94>)
 80009a6:	683a      	ldr	r2, [r7, #0]
 80009a8:	f841 2023 	str.w	r2, [r1, r3, lsl #2]
		for(j=0; j<n-i-1; j++)
 80009ac:	79bb      	ldrb	r3, [r7, #6]
 80009ae:	3301      	adds	r3, #1
 80009b0:	71bb      	strb	r3, [r7, #6]
 80009b2:	79ba      	ldrb	r2, [r7, #6]
 80009b4:	7979      	ldrb	r1, [r7, #5]
 80009b6:	79fb      	ldrb	r3, [r7, #7]
 80009b8:	1acb      	subs	r3, r1, r3
 80009ba:	3b01      	subs	r3, #1
 80009bc:	429a      	cmp	r2, r3
 80009be:	dbd4      	blt.n	800096a <BubbleSort+0x22>
	for(i=0; i<n-1; i++)
 80009c0:	79fb      	ldrb	r3, [r7, #7]
 80009c2:	3301      	adds	r3, #1
 80009c4:	71fb      	strb	r3, [r7, #7]
 80009c6:	79fa      	ldrb	r2, [r7, #7]
 80009c8:	797b      	ldrb	r3, [r7, #5]
 80009ca:	3b01      	subs	r3, #1
 80009cc:	429a      	cmp	r2, r3
 80009ce:	dbc9      	blt.n	8000964 <BubbleSort+0x1c>

		}
	}


}
 80009d0:	bf00      	nop
 80009d2:	370c      	adds	r7, #12
 80009d4:	46bd      	mov	sp, r7
 80009d6:	bc80      	pop	{r7}
 80009d8:	4770      	bx	lr
 80009da:	bf00      	nop
 80009dc:	200003e8 	.word	0x200003e8

080009e0 <teraRTOS_Update_SchedulerTable>:

//Handler MODE
void teraRTOS_Update_SchedulerTable(){
 80009e0:	b580      	push	{r7, lr}
 80009e2:	b084      	sub	sp, #16
 80009e4:	af00      	add	r7, sp, #0

	Task_Creation * Ptask;
	Task_Creation * PnextTask;

	int i = 0 ;
 80009e6:	2300      	movs	r3, #0
 80009e8:	60fb      	str	r3, [r7, #12]



	Task_Creation * temp = NULL;
 80009ea:	2300      	movs	r3, #0
 80009ec:	603b      	str	r3, [r7, #0]

	//1- Bubble sort the scheduler table -> OS_Control.OS_Tasks[100] (FROM HIGH PRIORITY TO LOW)
	BubbleSort();
 80009ee:	f7ff ffab 	bl	8000948 <BubbleSort>
	//2- Free ready queue
	while(FIFO_dequeue(&Ready_Queue, &temp) != FIFO_EMPTY);
 80009f2:	bf00      	nop
 80009f4:	463b      	mov	r3, r7
 80009f6:	4619      	mov	r1, r3
 80009f8:	482b      	ldr	r0, [pc, #172]	; (8000aa8 <teraRTOS_Update_SchedulerTable+0xc8>)
 80009fa:	f000 fbf1 	bl	80011e0 <FIFO_dequeue>
 80009fe:	4603      	mov	r3, r0
 8000a00:	2b02      	cmp	r3, #2
 8000a02:	d1f7      	bne.n	80009f4 <teraRTOS_Update_SchedulerTable+0x14>

	//3- Update ready queue
	while(i< OS_Control.ActiveTasks_number)
 8000a04:	e044      	b.n	8000a90 <teraRTOS_Update_SchedulerTable+0xb0>
	{
		Ptask =	OS_Control.OS_Tasks[i];
 8000a06:	4a29      	ldr	r2, [pc, #164]	; (8000aac <teraRTOS_Update_SchedulerTable+0xcc>)
 8000a08:	68fb      	ldr	r3, [r7, #12]
 8000a0a:	f852 3023 	ldr.w	r3, [r2, r3, lsl #2]
 8000a0e:	60bb      	str	r3, [r7, #8]
		PnextTask =	OS_Control.OS_Tasks[i+1];
 8000a10:	68fb      	ldr	r3, [r7, #12]
 8000a12:	3301      	adds	r3, #1
 8000a14:	4a25      	ldr	r2, [pc, #148]	; (8000aac <teraRTOS_Update_SchedulerTable+0xcc>)
 8000a16:	f852 3023 	ldr.w	r3, [r2, r3, lsl #2]
 8000a1a:	607b      	str	r3, [r7, #4]
		if(Ptask->TaskState != Suspended)
 8000a1c:	68bb      	ldr	r3, [r7, #8]
 8000a1e:	f893 303a 	ldrb.w	r3, [r3, #58]	; 0x3a
 8000a22:	2b00      	cmp	r3, #0
 8000a24:	d031      	beq.n	8000a8a <teraRTOS_Update_SchedulerTable+0xaa>
		{
			if(PnextTask->TaskState == Suspended)
 8000a26:	687b      	ldr	r3, [r7, #4]
 8000a28:	f893 303a 	ldrb.w	r3, [r3, #58]	; 0x3a
 8000a2c:	2b00      	cmp	r3, #0
 8000a2e:	d108      	bne.n	8000a42 <teraRTOS_Update_SchedulerTable+0x62>
			{
				FIFO_enqueue(&Ready_Queue, Ptask);
 8000a30:	68b9      	ldr	r1, [r7, #8]
 8000a32:	481d      	ldr	r0, [pc, #116]	; (8000aa8 <teraRTOS_Update_SchedulerTable+0xc8>)
 8000a34:	f000 fb92 	bl	800115c <FIFO_enqueue>
				Ptask->TaskState = Ready;
 8000a38:	68bb      	ldr	r3, [r7, #8]
 8000a3a:	2203      	movs	r2, #3
 8000a3c:	f883 203a 	strb.w	r2, [r3, #58]	; 0x3a
				break;
 8000a40:	e02e      	b.n	8000aa0 <teraRTOS_Update_SchedulerTable+0xc0>
			}
			if(Ptask->Priority < PnextTask->Priority)
 8000a42:	68bb      	ldr	r3, [r7, #8]
 8000a44:	791a      	ldrb	r2, [r3, #4]
 8000a46:	687b      	ldr	r3, [r7, #4]
 8000a48:	791b      	ldrb	r3, [r3, #4]
 8000a4a:	429a      	cmp	r2, r3
 8000a4c:	d208      	bcs.n	8000a60 <teraRTOS_Update_SchedulerTable+0x80>
			{
				FIFO_enqueue(&Ready_Queue, Ptask);
 8000a4e:	68b9      	ldr	r1, [r7, #8]
 8000a50:	4815      	ldr	r0, [pc, #84]	; (8000aa8 <teraRTOS_Update_SchedulerTable+0xc8>)
 8000a52:	f000 fb83 	bl	800115c <FIFO_enqueue>
				Ptask->TaskState = Ready;
 8000a56:	68bb      	ldr	r3, [r7, #8]
 8000a58:	2203      	movs	r2, #3
 8000a5a:	f883 203a 	strb.w	r2, [r3, #58]	; 0x3a
				break;
 8000a5e:	e01f      	b.n	8000aa0 <teraRTOS_Update_SchedulerTable+0xc0>
			}
			else if( (Ptask->Priority) == (PnextTask->Priority) )
 8000a60:	68bb      	ldr	r3, [r7, #8]
 8000a62:	791a      	ldrb	r2, [r3, #4]
 8000a64:	687b      	ldr	r3, [r7, #4]
 8000a66:	791b      	ldrb	r3, [r3, #4]
 8000a68:	429a      	cmp	r2, r3
 8000a6a:	d108      	bne.n	8000a7e <teraRTOS_Update_SchedulerTable+0x9e>
			{
				FIFO_enqueue(&Ready_Queue, Ptask);
 8000a6c:	68b9      	ldr	r1, [r7, #8]
 8000a6e:	480e      	ldr	r0, [pc, #56]	; (8000aa8 <teraRTOS_Update_SchedulerTable+0xc8>)
 8000a70:	f000 fb74 	bl	800115c <FIFO_enqueue>
				Ptask->TaskState = Ready;
 8000a74:	68bb      	ldr	r3, [r7, #8]
 8000a76:	2203      	movs	r2, #3
 8000a78:	f883 203a 	strb.w	r2, [r3, #58]	; 0x3a
 8000a7c:	e005      	b.n	8000a8a <teraRTOS_Update_SchedulerTable+0xaa>
			}
			else if(Ptask->Priority > PnextTask->Priority) // This condition not allowed to happen because of Bubble sorting
 8000a7e:	68bb      	ldr	r3, [r7, #8]
 8000a80:	791a      	ldrb	r2, [r3, #4]
 8000a82:	687b      	ldr	r3, [r7, #4]
 8000a84:	791b      	ldrb	r3, [r3, #4]
 8000a86:	429a      	cmp	r2, r3
 8000a88:	d809      	bhi.n	8000a9e <teraRTOS_Update_SchedulerTable+0xbe>
			}
		}



		i++;
 8000a8a:	68fb      	ldr	r3, [r7, #12]
 8000a8c:	3301      	adds	r3, #1
 8000a8e:	60fb      	str	r3, [r7, #12]
	while(i< OS_Control.ActiveTasks_number)
 8000a90:	4b06      	ldr	r3, [pc, #24]	; (8000aac <teraRTOS_Update_SchedulerTable+0xcc>)
 8000a92:	f8d3 219c 	ldr.w	r2, [r3, #412]	; 0x19c
 8000a96:	68fb      	ldr	r3, [r7, #12]
 8000a98:	429a      	cmp	r2, r3
 8000a9a:	d8b4      	bhi.n	8000a06 <teraRTOS_Update_SchedulerTable+0x26>
	}

}
 8000a9c:	e000      	b.n	8000aa0 <teraRTOS_Update_SchedulerTable+0xc0>
				break;
 8000a9e:	bf00      	nop
}
 8000aa0:	bf00      	nop
 8000aa2:	3710      	adds	r7, #16
 8000aa4:	46bd      	mov	sp, r7
 8000aa6:	bd80      	pop	{r7, pc}
 8000aa8:	20000240 	.word	0x20000240
 8000aac:	200003e8 	.word	0x200003e8

08000ab0 <Decide_WhatNext>:

//Handler Mode
void Decide_WhatNext(void)
{
 8000ab0:	b580      	push	{r7, lr}
 8000ab2:	af00      	add	r7, sp, #0

	//if ready queue is empty && OS_Control.CurrentTask->TaskState != Suspended
	if(Ready_Queue.counter == 0 && OS_Control.CurrentTask->TaskState != Suspended)
 8000ab4:	4b24      	ldr	r3, [pc, #144]	; (8000b48 <Decide_WhatNext+0x98>)
 8000ab6:	681b      	ldr	r3, [r3, #0]
 8000ab8:	2b00      	cmp	r3, #0
 8000aba:	d11a      	bne.n	8000af2 <Decide_WhatNext+0x42>
 8000abc:	4b23      	ldr	r3, [pc, #140]	; (8000b4c <Decide_WhatNext+0x9c>)
 8000abe:	f8d3 31a0 	ldr.w	r3, [r3, #416]	; 0x1a0
 8000ac2:	f893 303a 	ldrb.w	r3, [r3, #58]	; 0x3a
 8000ac6:	2b00      	cmp	r3, #0
 8000ac8:	d013      	beq.n	8000af2 <Decide_WhatNext+0x42>
	{
		OS_Control.CurrentTask->TaskState = Running;
 8000aca:	4b20      	ldr	r3, [pc, #128]	; (8000b4c <Decide_WhatNext+0x9c>)
 8000acc:	f8d3 31a0 	ldr.w	r3, [r3, #416]	; 0x1a0
 8000ad0:	2201      	movs	r2, #1
 8000ad2:	f883 203a 	strb.w	r2, [r3, #58]	; 0x3a
		FIFO_enqueue(&Ready_Queue, OS_Control.CurrentTask);
 8000ad6:	4b1d      	ldr	r3, [pc, #116]	; (8000b4c <Decide_WhatNext+0x9c>)
 8000ad8:	f8d3 31a0 	ldr.w	r3, [r3, #416]	; 0x1a0
 8000adc:	4619      	mov	r1, r3
 8000ade:	481a      	ldr	r0, [pc, #104]	; (8000b48 <Decide_WhatNext+0x98>)
 8000ae0:	f000 fb3c 	bl	800115c <FIFO_enqueue>
		OS_Control.NextTask =  OS_Control.CurrentTask;
 8000ae4:	4b19      	ldr	r3, [pc, #100]	; (8000b4c <Decide_WhatNext+0x9c>)
 8000ae6:	f8d3 31a0 	ldr.w	r3, [r3, #416]	; 0x1a0
 8000aea:	4a18      	ldr	r2, [pc, #96]	; (8000b4c <Decide_WhatNext+0x9c>)
 8000aec:	f8c2 31a4 	str.w	r3, [r2, #420]	; 0x1a4
			FIFO_enqueue(&Ready_Queue, OS_Control.CurrentTask);
			OS_Control.CurrentTask->TaskState = Ready;
		}
	}

}
 8000af0:	e027      	b.n	8000b42 <Decide_WhatNext+0x92>
		FIFO_dequeue(&Ready_Queue, &OS_Control.NextTask);
 8000af2:	4917      	ldr	r1, [pc, #92]	; (8000b50 <Decide_WhatNext+0xa0>)
 8000af4:	4814      	ldr	r0, [pc, #80]	; (8000b48 <Decide_WhatNext+0x98>)
 8000af6:	f000 fb73 	bl	80011e0 <FIFO_dequeue>
		OS_Control.NextTask->TaskState = Running;
 8000afa:	4b14      	ldr	r3, [pc, #80]	; (8000b4c <Decide_WhatNext+0x9c>)
 8000afc:	f8d3 31a4 	ldr.w	r3, [r3, #420]	; 0x1a4
 8000b00:	2201      	movs	r2, #1
 8000b02:	f883 203a 	strb.w	r2, [r3, #58]	; 0x3a
		if( (OS_Control.CurrentTask->Priority == OS_Control.NextTask->Priority ) && (OS_Control.CurrentTask->TaskState != Suspended) )
 8000b06:	4b11      	ldr	r3, [pc, #68]	; (8000b4c <Decide_WhatNext+0x9c>)
 8000b08:	f8d3 31a0 	ldr.w	r3, [r3, #416]	; 0x1a0
 8000b0c:	791a      	ldrb	r2, [r3, #4]
 8000b0e:	4b0f      	ldr	r3, [pc, #60]	; (8000b4c <Decide_WhatNext+0x9c>)
 8000b10:	f8d3 31a4 	ldr.w	r3, [r3, #420]	; 0x1a4
 8000b14:	791b      	ldrb	r3, [r3, #4]
 8000b16:	429a      	cmp	r2, r3
 8000b18:	d113      	bne.n	8000b42 <Decide_WhatNext+0x92>
 8000b1a:	4b0c      	ldr	r3, [pc, #48]	; (8000b4c <Decide_WhatNext+0x9c>)
 8000b1c:	f8d3 31a0 	ldr.w	r3, [r3, #416]	; 0x1a0
 8000b20:	f893 303a 	ldrb.w	r3, [r3, #58]	; 0x3a
 8000b24:	2b00      	cmp	r3, #0
 8000b26:	d00c      	beq.n	8000b42 <Decide_WhatNext+0x92>
			FIFO_enqueue(&Ready_Queue, OS_Control.CurrentTask);
 8000b28:	4b08      	ldr	r3, [pc, #32]	; (8000b4c <Decide_WhatNext+0x9c>)
 8000b2a:	f8d3 31a0 	ldr.w	r3, [r3, #416]	; 0x1a0
 8000b2e:	4619      	mov	r1, r3
 8000b30:	4805      	ldr	r0, [pc, #20]	; (8000b48 <Decide_WhatNext+0x98>)
 8000b32:	f000 fb13 	bl	800115c <FIFO_enqueue>
			OS_Control.CurrentTask->TaskState = Ready;
 8000b36:	4b05      	ldr	r3, [pc, #20]	; (8000b4c <Decide_WhatNext+0x9c>)
 8000b38:	f8d3 31a0 	ldr.w	r3, [r3, #416]	; 0x1a0
 8000b3c:	2203      	movs	r2, #3
 8000b3e:	f883 203a 	strb.w	r2, [r3, #58]	; 0x3a
}
 8000b42:	bf00      	nop
 8000b44:	bd80      	pop	{r7, pc}
 8000b46:	bf00      	nop
 8000b48:	20000240 	.word	0x20000240
 8000b4c:	200003e8 	.word	0x200003e8
 8000b50:	2000058c 	.word	0x2000058c

08000b54 <OS_SVC_services>:

//To execute specific OS service
// Handler Mode
void OS_SVC_services(int * StackFramePointer)
{
 8000b54:	b580      	push	{r7, lr}
 8000b56:	b084      	sub	sp, #16
 8000b58:	af00      	add	r7, sp, #0
 8000b5a:	6078      	str	r0, [r7, #4]
	//OS_SVC_Set Stack -> R0 -> argument 0 = StackFramePointer
	//OS_SVC_Set Stack : R0,R1,R2,R3,R12,LR,PC,xPSR
	unsigned char SVC_Number;
	SVC_Number =  *((unsigned char*)( ( (unsigned char*)StackFramePointer[6] ) - 2 )) ;
 8000b5c:	687b      	ldr	r3, [r7, #4]
 8000b5e:	3318      	adds	r3, #24
 8000b60:	681b      	ldr	r3, [r3, #0]
 8000b62:	3b02      	subs	r3, #2
 8000b64:	781b      	ldrb	r3, [r3, #0]
 8000b66:	73fb      	strb	r3, [r7, #15]

	switch(SVC_Number)
 8000b68:	7bfb      	ldrb	r3, [r7, #15]
 8000b6a:	2b00      	cmp	r3, #0
 8000b6c:	db20      	blt.n	8000bb0 <OS_SVC_services+0x5c>
 8000b6e:	2b01      	cmp	r3, #1
 8000b70:	dd02      	ble.n	8000b78 <OS_SVC_services+0x24>
 8000b72:	2b02      	cmp	r3, #2
 8000b74:	d017      	beq.n	8000ba6 <OS_SVC_services+0x52>
		teraRTOS_Update_SchedulerTable();

		break;
	}

	return;
 8000b76:	e01b      	b.n	8000bb0 <OS_SVC_services+0x5c>
		teraRTOS_Update_SchedulerTable();
 8000b78:	f7ff ff32 	bl	80009e0 <teraRTOS_Update_SchedulerTable>
		if(OS_Control.OS_Modes == OSrunning)
 8000b7c:	4b0e      	ldr	r3, [pc, #56]	; (8000bb8 <OS_SVC_services+0x64>)
 8000b7e:	f893 31a8 	ldrb.w	r3, [r3, #424]	; 0x1a8
 8000b82:	2b01      	cmp	r3, #1
 8000b84:	d112      	bne.n	8000bac <OS_SVC_services+0x58>
			if(strcmp(OS_Control.CurrentTask->TaskName, "idleTask") != 0)
 8000b86:	4b0c      	ldr	r3, [pc, #48]	; (8000bb8 <OS_SVC_services+0x64>)
 8000b88:	f8d3 31a0 	ldr.w	r3, [r3, #416]	; 0x1a0
 8000b8c:	331c      	adds	r3, #28
 8000b8e:	490b      	ldr	r1, [pc, #44]	; (8000bbc <OS_SVC_services+0x68>)
 8000b90:	4618      	mov	r0, r3
 8000b92:	f7ff faed 	bl	8000170 <strcmp>
 8000b96:	4603      	mov	r3, r0
 8000b98:	2b00      	cmp	r3, #0
 8000b9a:	d007      	beq.n	8000bac <OS_SVC_services+0x58>
				Decide_WhatNext();
 8000b9c:	f7ff ff88 	bl	8000ab0 <Decide_WhatNext>
				trigger_OS_PendSV();
 8000ba0:	f7ff fea8 	bl	80008f4 <trigger_OS_PendSV>
		break;
 8000ba4:	e002      	b.n	8000bac <OS_SVC_services+0x58>
		teraRTOS_Update_SchedulerTable();
 8000ba6:	f7ff ff1b 	bl	80009e0 <teraRTOS_Update_SchedulerTable>
		break;
 8000baa:	e000      	b.n	8000bae <OS_SVC_services+0x5a>
		break;
 8000bac:	bf00      	nop
	return;
 8000bae:	bf00      	nop
 8000bb0:	bf00      	nop
}
 8000bb2:	3710      	adds	r7, #16
 8000bb4:	46bd      	mov	sp, r7
 8000bb6:	bd80      	pop	{r7, pc}
 8000bb8:	200003e8 	.word	0x200003e8
 8000bbc:	080012ec 	.word	0x080012ec

08000bc0 <PendSV_Handler>:
	//=====================================
	//Save the Context of the Current Task
	//=====================================
	//Get the Current Task PSP from CPU register as CPU pushes xPSR,.....,R0

	OS_GET_PSP(OS_Control.CurrentTask->CurrentPSP);
 8000bc0:	4b6e      	ldr	r3, [pc, #440]	; (8000d7c <PendSV_Handler+0x1bc>)
 8000bc2:	f8d3 31a0 	ldr.w	r3, [r3, #416]	; 0x1a0
 8000bc6:	f3ef 8209 	mrs	r2, PSP
 8000bca:	619a      	str	r2, [r3, #24]

	//Using this CurrentPSP ( Pointer ) to store (R4 to R11)
	OS_Control.CurrentTask->CurrentPSP--;
 8000bcc:	4b6b      	ldr	r3, [pc, #428]	; (8000d7c <PendSV_Handler+0x1bc>)
 8000bce:	f8d3 31a0 	ldr.w	r3, [r3, #416]	; 0x1a0
 8000bd2:	699a      	ldr	r2, [r3, #24]
 8000bd4:	3a04      	subs	r2, #4
 8000bd6:	619a      	str	r2, [r3, #24]
	__asm volatile("mov %0,r4" : "=r" (*(OS_Control.CurrentTask->CurrentPSP)) );
 8000bd8:	4b68      	ldr	r3, [pc, #416]	; (8000d7c <PendSV_Handler+0x1bc>)
 8000bda:	f8d3 31a0 	ldr.w	r3, [r3, #416]	; 0x1a0
 8000bde:	699b      	ldr	r3, [r3, #24]
 8000be0:	4622      	mov	r2, r4
 8000be2:	601a      	str	r2, [r3, #0]
	OS_Control.CurrentTask->CurrentPSP--;
 8000be4:	4b65      	ldr	r3, [pc, #404]	; (8000d7c <PendSV_Handler+0x1bc>)
 8000be6:	f8d3 31a0 	ldr.w	r3, [r3, #416]	; 0x1a0
 8000bea:	699a      	ldr	r2, [r3, #24]
 8000bec:	3a04      	subs	r2, #4
 8000bee:	619a      	str	r2, [r3, #24]
	__asm volatile("mov %0,r5" : "=r" (*(OS_Control.CurrentTask->CurrentPSP)) );
 8000bf0:	4b62      	ldr	r3, [pc, #392]	; (8000d7c <PendSV_Handler+0x1bc>)
 8000bf2:	f8d3 31a0 	ldr.w	r3, [r3, #416]	; 0x1a0
 8000bf6:	699b      	ldr	r3, [r3, #24]
 8000bf8:	462a      	mov	r2, r5
 8000bfa:	601a      	str	r2, [r3, #0]
	OS_Control.CurrentTask->CurrentPSP--;
 8000bfc:	4b5f      	ldr	r3, [pc, #380]	; (8000d7c <PendSV_Handler+0x1bc>)
 8000bfe:	f8d3 31a0 	ldr.w	r3, [r3, #416]	; 0x1a0
 8000c02:	699a      	ldr	r2, [r3, #24]
 8000c04:	3a04      	subs	r2, #4
 8000c06:	619a      	str	r2, [r3, #24]
	__asm volatile("mov %0,r6" : "=r" (*(OS_Control.CurrentTask->CurrentPSP)) );
 8000c08:	4b5c      	ldr	r3, [pc, #368]	; (8000d7c <PendSV_Handler+0x1bc>)
 8000c0a:	f8d3 31a0 	ldr.w	r3, [r3, #416]	; 0x1a0
 8000c0e:	699b      	ldr	r3, [r3, #24]
 8000c10:	4632      	mov	r2, r6
 8000c12:	601a      	str	r2, [r3, #0]
	OS_Control.CurrentTask->CurrentPSP--;
 8000c14:	4b59      	ldr	r3, [pc, #356]	; (8000d7c <PendSV_Handler+0x1bc>)
 8000c16:	f8d3 31a0 	ldr.w	r3, [r3, #416]	; 0x1a0
 8000c1a:	699a      	ldr	r2, [r3, #24]
 8000c1c:	3a04      	subs	r2, #4
 8000c1e:	619a      	str	r2, [r3, #24]
	__asm volatile("mov %0,r7" : "=r" (*(OS_Control.CurrentTask->CurrentPSP)) );
 8000c20:	4b56      	ldr	r3, [pc, #344]	; (8000d7c <PendSV_Handler+0x1bc>)
 8000c22:	f8d3 31a0 	ldr.w	r3, [r3, #416]	; 0x1a0
 8000c26:	699b      	ldr	r3, [r3, #24]
 8000c28:	463a      	mov	r2, r7
 8000c2a:	601a      	str	r2, [r3, #0]
	OS_Control.CurrentTask->CurrentPSP--;
 8000c2c:	4b53      	ldr	r3, [pc, #332]	; (8000d7c <PendSV_Handler+0x1bc>)
 8000c2e:	f8d3 31a0 	ldr.w	r3, [r3, #416]	; 0x1a0
 8000c32:	699a      	ldr	r2, [r3, #24]
 8000c34:	3a04      	subs	r2, #4
 8000c36:	619a      	str	r2, [r3, #24]
	__asm volatile("mov %0,r8" : "=r" (*(OS_Control.CurrentTask->CurrentPSP)) );
 8000c38:	4b50      	ldr	r3, [pc, #320]	; (8000d7c <PendSV_Handler+0x1bc>)
 8000c3a:	f8d3 31a0 	ldr.w	r3, [r3, #416]	; 0x1a0
 8000c3e:	699b      	ldr	r3, [r3, #24]
 8000c40:	4642      	mov	r2, r8
 8000c42:	601a      	str	r2, [r3, #0]
	OS_Control.CurrentTask->CurrentPSP--;
 8000c44:	4b4d      	ldr	r3, [pc, #308]	; (8000d7c <PendSV_Handler+0x1bc>)
 8000c46:	f8d3 31a0 	ldr.w	r3, [r3, #416]	; 0x1a0
 8000c4a:	699a      	ldr	r2, [r3, #24]
 8000c4c:	3a04      	subs	r2, #4
 8000c4e:	619a      	str	r2, [r3, #24]
	__asm volatile("mov %0,r9" : "=r" (*(OS_Control.CurrentTask->CurrentPSP)) );
 8000c50:	4b4a      	ldr	r3, [pc, #296]	; (8000d7c <PendSV_Handler+0x1bc>)
 8000c52:	f8d3 31a0 	ldr.w	r3, [r3, #416]	; 0x1a0
 8000c56:	699b      	ldr	r3, [r3, #24]
 8000c58:	464a      	mov	r2, r9
 8000c5a:	601a      	str	r2, [r3, #0]
	OS_Control.CurrentTask->CurrentPSP--;
 8000c5c:	4b47      	ldr	r3, [pc, #284]	; (8000d7c <PendSV_Handler+0x1bc>)
 8000c5e:	f8d3 31a0 	ldr.w	r3, [r3, #416]	; 0x1a0
 8000c62:	699a      	ldr	r2, [r3, #24]
 8000c64:	3a04      	subs	r2, #4
 8000c66:	619a      	str	r2, [r3, #24]
	__asm volatile("mov %0,r10" : "=r" (*(OS_Control.CurrentTask->CurrentPSP)) );
 8000c68:	4b44      	ldr	r3, [pc, #272]	; (8000d7c <PendSV_Handler+0x1bc>)
 8000c6a:	f8d3 31a0 	ldr.w	r3, [r3, #416]	; 0x1a0
 8000c6e:	699b      	ldr	r3, [r3, #24]
 8000c70:	4652      	mov	r2, sl
 8000c72:	601a      	str	r2, [r3, #0]
	OS_Control.CurrentTask->CurrentPSP--;
 8000c74:	4b41      	ldr	r3, [pc, #260]	; (8000d7c <PendSV_Handler+0x1bc>)
 8000c76:	f8d3 31a0 	ldr.w	r3, [r3, #416]	; 0x1a0
 8000c7a:	699a      	ldr	r2, [r3, #24]
 8000c7c:	3a04      	subs	r2, #4
 8000c7e:	619a      	str	r2, [r3, #24]
	__asm volatile("mov %0,r11" : "=r" (*(OS_Control.CurrentTask->CurrentPSP)) );
 8000c80:	4b3e      	ldr	r3, [pc, #248]	; (8000d7c <PendSV_Handler+0x1bc>)
 8000c82:	f8d3 31a0 	ldr.w	r3, [r3, #416]	; 0x1a0
 8000c86:	699b      	ldr	r3, [r3, #24]
 8000c88:	465a      	mov	r2, fp
 8000c8a:	601a      	str	r2, [r3, #0]
	//Already saved in CurrentPSP

	//=====================================
	//Restore the Context of the Next task
	//=====================================
	if(OS_Control.NextTask != NULL){
 8000c8c:	4b3b      	ldr	r3, [pc, #236]	; (8000d7c <PendSV_Handler+0x1bc>)
 8000c8e:	f8d3 31a4 	ldr.w	r3, [r3, #420]	; 0x1a4
 8000c92:	2b00      	cmp	r3, #0
 8000c94:	d009      	beq.n	8000caa <PendSV_Handler+0xea>
		OS_Control.CurrentTask = OS_Control.NextTask;
 8000c96:	4b39      	ldr	r3, [pc, #228]	; (8000d7c <PendSV_Handler+0x1bc>)
 8000c98:	f8d3 31a4 	ldr.w	r3, [r3, #420]	; 0x1a4
 8000c9c:	4a37      	ldr	r2, [pc, #220]	; (8000d7c <PendSV_Handler+0x1bc>)
 8000c9e:	f8c2 31a0 	str.w	r3, [r2, #416]	; 0x1a0
		OS_Control.NextTask = NULL;
 8000ca2:	4b36      	ldr	r3, [pc, #216]	; (8000d7c <PendSV_Handler+0x1bc>)
 8000ca4:	2200      	movs	r2, #0
 8000ca6:	f8c3 21a4 	str.w	r2, [r3, #420]	; 0x1a4
	}

	__asm volatile("mov R11,%0 " : : "r"( *(OS_Control.CurrentTask->CurrentPSP) ));
 8000caa:	4b34      	ldr	r3, [pc, #208]	; (8000d7c <PendSV_Handler+0x1bc>)
 8000cac:	f8d3 31a0 	ldr.w	r3, [r3, #416]	; 0x1a0
 8000cb0:	699b      	ldr	r3, [r3, #24]
 8000cb2:	681b      	ldr	r3, [r3, #0]
 8000cb4:	469b      	mov	fp, r3
	OS_Control.CurrentTask->CurrentPSP++;
 8000cb6:	4b31      	ldr	r3, [pc, #196]	; (8000d7c <PendSV_Handler+0x1bc>)
 8000cb8:	f8d3 31a0 	ldr.w	r3, [r3, #416]	; 0x1a0
 8000cbc:	699a      	ldr	r2, [r3, #24]
 8000cbe:	3204      	adds	r2, #4
 8000cc0:	619a      	str	r2, [r3, #24]
	__asm volatile("mov R10,%0 " : : "r"( *(OS_Control.CurrentTask->CurrentPSP) ));
 8000cc2:	4b2e      	ldr	r3, [pc, #184]	; (8000d7c <PendSV_Handler+0x1bc>)
 8000cc4:	f8d3 31a0 	ldr.w	r3, [r3, #416]	; 0x1a0
 8000cc8:	699b      	ldr	r3, [r3, #24]
 8000cca:	681b      	ldr	r3, [r3, #0]
 8000ccc:	469a      	mov	sl, r3
	OS_Control.CurrentTask->CurrentPSP++;
 8000cce:	4b2b      	ldr	r3, [pc, #172]	; (8000d7c <PendSV_Handler+0x1bc>)
 8000cd0:	f8d3 31a0 	ldr.w	r3, [r3, #416]	; 0x1a0
 8000cd4:	699a      	ldr	r2, [r3, #24]
 8000cd6:	3204      	adds	r2, #4
 8000cd8:	619a      	str	r2, [r3, #24]
	__asm volatile("mov R9,%0 " : : "r"( *(OS_Control.CurrentTask->CurrentPSP) ));
 8000cda:	4b28      	ldr	r3, [pc, #160]	; (8000d7c <PendSV_Handler+0x1bc>)
 8000cdc:	f8d3 31a0 	ldr.w	r3, [r3, #416]	; 0x1a0
 8000ce0:	699b      	ldr	r3, [r3, #24]
 8000ce2:	681b      	ldr	r3, [r3, #0]
 8000ce4:	4699      	mov	r9, r3
	OS_Control.CurrentTask->CurrentPSP++;
 8000ce6:	4b25      	ldr	r3, [pc, #148]	; (8000d7c <PendSV_Handler+0x1bc>)
 8000ce8:	f8d3 31a0 	ldr.w	r3, [r3, #416]	; 0x1a0
 8000cec:	699a      	ldr	r2, [r3, #24]
 8000cee:	3204      	adds	r2, #4
 8000cf0:	619a      	str	r2, [r3, #24]
	__asm volatile("mov R8,%0 " : : "r"( *(OS_Control.CurrentTask->CurrentPSP) ));
 8000cf2:	4b22      	ldr	r3, [pc, #136]	; (8000d7c <PendSV_Handler+0x1bc>)
 8000cf4:	f8d3 31a0 	ldr.w	r3, [r3, #416]	; 0x1a0
 8000cf8:	699b      	ldr	r3, [r3, #24]
 8000cfa:	681b      	ldr	r3, [r3, #0]
 8000cfc:	4698      	mov	r8, r3
	OS_Control.CurrentTask->CurrentPSP++;
 8000cfe:	4b1f      	ldr	r3, [pc, #124]	; (8000d7c <PendSV_Handler+0x1bc>)
 8000d00:	f8d3 31a0 	ldr.w	r3, [r3, #416]	; 0x1a0
 8000d04:	699a      	ldr	r2, [r3, #24]
 8000d06:	3204      	adds	r2, #4
 8000d08:	619a      	str	r2, [r3, #24]
	__asm volatile("mov R7,%0 " : : "r"( *(OS_Control.CurrentTask->CurrentPSP) ));
 8000d0a:	4b1c      	ldr	r3, [pc, #112]	; (8000d7c <PendSV_Handler+0x1bc>)
 8000d0c:	f8d3 31a0 	ldr.w	r3, [r3, #416]	; 0x1a0
 8000d10:	699b      	ldr	r3, [r3, #24]
 8000d12:	681b      	ldr	r3, [r3, #0]
 8000d14:	461f      	mov	r7, r3
	OS_Control.CurrentTask->CurrentPSP++;
 8000d16:	4b19      	ldr	r3, [pc, #100]	; (8000d7c <PendSV_Handler+0x1bc>)
 8000d18:	f8d3 31a0 	ldr.w	r3, [r3, #416]	; 0x1a0
 8000d1c:	699a      	ldr	r2, [r3, #24]
 8000d1e:	3204      	adds	r2, #4
 8000d20:	619a      	str	r2, [r3, #24]
	__asm volatile("mov R6,%0 " : : "r"( *(OS_Control.CurrentTask->CurrentPSP) ));
 8000d22:	4b16      	ldr	r3, [pc, #88]	; (8000d7c <PendSV_Handler+0x1bc>)
 8000d24:	f8d3 31a0 	ldr.w	r3, [r3, #416]	; 0x1a0
 8000d28:	699b      	ldr	r3, [r3, #24]
 8000d2a:	681b      	ldr	r3, [r3, #0]
 8000d2c:	461e      	mov	r6, r3
	OS_Control.CurrentTask->CurrentPSP++;
 8000d2e:	4b13      	ldr	r3, [pc, #76]	; (8000d7c <PendSV_Handler+0x1bc>)
 8000d30:	f8d3 31a0 	ldr.w	r3, [r3, #416]	; 0x1a0
 8000d34:	699a      	ldr	r2, [r3, #24]
 8000d36:	3204      	adds	r2, #4
 8000d38:	619a      	str	r2, [r3, #24]
	__asm volatile("mov R5,%0 " : : "r"( *(OS_Control.CurrentTask->CurrentPSP) ));
 8000d3a:	4b10      	ldr	r3, [pc, #64]	; (8000d7c <PendSV_Handler+0x1bc>)
 8000d3c:	f8d3 31a0 	ldr.w	r3, [r3, #416]	; 0x1a0
 8000d40:	699b      	ldr	r3, [r3, #24]
 8000d42:	681b      	ldr	r3, [r3, #0]
 8000d44:	461d      	mov	r5, r3
	OS_Control.CurrentTask->CurrentPSP++;
 8000d46:	4b0d      	ldr	r3, [pc, #52]	; (8000d7c <PendSV_Handler+0x1bc>)
 8000d48:	f8d3 31a0 	ldr.w	r3, [r3, #416]	; 0x1a0
 8000d4c:	699a      	ldr	r2, [r3, #24]
 8000d4e:	3204      	adds	r2, #4
 8000d50:	619a      	str	r2, [r3, #24]
	__asm volatile("mov R4,%0 " : : "r"( *(OS_Control.CurrentTask->CurrentPSP) ));
 8000d52:	4b0a      	ldr	r3, [pc, #40]	; (8000d7c <PendSV_Handler+0x1bc>)
 8000d54:	f8d3 31a0 	ldr.w	r3, [r3, #416]	; 0x1a0
 8000d58:	699b      	ldr	r3, [r3, #24]
 8000d5a:	681b      	ldr	r3, [r3, #0]
 8000d5c:	461c      	mov	r4, r3
	OS_Control.CurrentTask->CurrentPSP++;
 8000d5e:	4b07      	ldr	r3, [pc, #28]	; (8000d7c <PendSV_Handler+0x1bc>)
 8000d60:	f8d3 31a0 	ldr.w	r3, [r3, #416]	; 0x1a0
 8000d64:	699a      	ldr	r2, [r3, #24]
 8000d66:	3204      	adds	r2, #4
 8000d68:	619a      	str	r2, [r3, #24]

	//Update PSP and Exit
	OS_SET_PSP(OS_Control.CurrentTask->CurrentPSP);
 8000d6a:	4b04      	ldr	r3, [pc, #16]	; (8000d7c <PendSV_Handler+0x1bc>)
 8000d6c:	f8d3 31a0 	ldr.w	r3, [r3, #416]	; 0x1a0
 8000d70:	699b      	ldr	r3, [r3, #24]
 8000d72:	f383 8809 	msr	PSP, r3
	__asm volatile ("BX LR");
 8000d76:	4770      	bx	lr



}
 8000d78:	bf00      	nop
 8000d7a:	bf00      	nop
 8000d7c:	200003e8 	.word	0x200003e8

08000d80 <teraRTOS_CreateMSP>:


void teraRTOS_CreateMSP() {
 8000d80:	b480      	push	{r7}
 8000d82:	af00      	add	r7, sp, #0
	OS_Control._S_MSP =(uint32_t)&_estack ;
 8000d84:	4a0b      	ldr	r2, [pc, #44]	; (8000db4 <teraRTOS_CreateMSP+0x34>)
 8000d86:	4b0c      	ldr	r3, [pc, #48]	; (8000db8 <teraRTOS_CreateMSP+0x38>)
 8000d88:	f8c3 2190 	str.w	r2, [r3, #400]	; 0x190
	OS_Control._E_MSP = OS_Control._S_MSP - MainStackSize;
 8000d8c:	4b0a      	ldr	r3, [pc, #40]	; (8000db8 <teraRTOS_CreateMSP+0x38>)
 8000d8e:	f8d3 3190 	ldr.w	r3, [r3, #400]	; 0x190
 8000d92:	f5a3 6300 	sub.w	r3, r3, #2048	; 0x800
 8000d96:	4a08      	ldr	r2, [pc, #32]	; (8000db8 <teraRTOS_CreateMSP+0x38>)
 8000d98:	f8c2 3194 	str.w	r3, [r2, #404]	; 0x194
	// Aligned 8 Bytes spaces between MSP and PSP
	OS_Control.Task_PSP_LOCATOR = OS_Control._E_MSP + 8 ;
 8000d9c:	4b06      	ldr	r3, [pc, #24]	; (8000db8 <teraRTOS_CreateMSP+0x38>)
 8000d9e:	f8d3 3194 	ldr.w	r3, [r3, #404]	; 0x194
 8000da2:	3308      	adds	r3, #8
 8000da4:	4a04      	ldr	r2, [pc, #16]	; (8000db8 <teraRTOS_CreateMSP+0x38>)
 8000da6:	f8c2 3198 	str.w	r3, [r2, #408]	; 0x198

	//  if ( _E_MSP < &_eheap ) --> " ERROR: EXCEEDED THE AVAILABLE STACK SIZE "


}
 8000daa:	bf00      	nop
 8000dac:	46bd      	mov	sp, r7
 8000dae:	bc80      	pop	{r7}
 8000db0:	4770      	bx	lr
 8000db2:	bf00      	nop
 8000db4:	20002800 	.word	0x20002800
 8000db8:	200003e8 	.word	0x200003e8

08000dbc <idle_Task_fun>:
uint8_t idleTaskLED;
void idle_Task_fun(){
 8000dbc:	b480      	push	{r7}
 8000dbe:	af00      	add	r7, sp, #0

	while(1)
	{
		idleTaskLED ^= 1;
 8000dc0:	4b04      	ldr	r3, [pc, #16]	; (8000dd4 <idle_Task_fun+0x18>)
 8000dc2:	781b      	ldrb	r3, [r3, #0]
 8000dc4:	f083 0301 	eor.w	r3, r3, #1
 8000dc8:	b2da      	uxtb	r2, r3
 8000dca:	4b02      	ldr	r3, [pc, #8]	; (8000dd4 <idle_Task_fun+0x18>)
 8000dcc:	701a      	strb	r2, [r3, #0]
		__asm("wfe");
 8000dce:	bf20      	wfe
		idleTaskLED ^= 1;
 8000dd0:	e7f6      	b.n	8000dc0 <idle_Task_fun+0x4>
 8000dd2:	bf00      	nop
 8000dd4:	20000254 	.word	0x20000254

08000dd8 <TERA_RTOS_init>:
	}

}
TERA_RTOS_ErrorType TERA_RTOS_init(void){
 8000dd8:	b580      	push	{r7, lr}
 8000dda:	b082      	sub	sp, #8
 8000ddc:	af00      	add	r7, sp, #0

	TERA_RTOS_ErrorType RTOS_Error;
	RTOS_Error = NoError;
 8000dde:	2300      	movs	r3, #0
 8000de0:	71fb      	strb	r3, [r7, #7]
	//Update OS Mode ( OS -> suspended )
	OS_Control.OS_Modes = OSsuspended;
 8000de2:	4b14      	ldr	r3, [pc, #80]	; (8000e34 <TERA_RTOS_init+0x5c>)
 8000de4:	2200      	movs	r2, #0
 8000de6:	f883 21a8 	strb.w	r2, [r3, #424]	; 0x1a8

	// Specify the main stack for OS
	teraRTOS_CreateMSP();
 8000dea:	f7ff ffc9 	bl	8000d80 <teraRTOS_CreateMSP>


	// Create OS ready Queue
	if ( FIFO_init(&Ready_Queue, READY_QUEUE_FIFO, 100) != FIFO_NO_ERROR)
 8000dee:	2264      	movs	r2, #100	; 0x64
 8000df0:	4911      	ldr	r1, [pc, #68]	; (8000e38 <TERA_RTOS_init+0x60>)
 8000df2:	4812      	ldr	r0, [pc, #72]	; (8000e3c <TERA_RTOS_init+0x64>)
 8000df4:	f000 f990 	bl	8001118 <FIFO_init>
 8000df8:	4603      	mov	r3, r0
 8000dfa:	2b00      	cmp	r3, #0
 8000dfc:	d001      	beq.n	8000e02 <TERA_RTOS_init+0x2a>
	{
		RTOS_Error = Ready_Queue_init_error;
 8000dfe:	2301      	movs	r3, #1
 8000e00:	71fb      	strb	r3, [r7, #7]
	}


	// Configure idle Task
	strcpy (teraRTOS_idleTask.TaskName,"idleTask");
 8000e02:	4b0f      	ldr	r3, [pc, #60]	; (8000e40 <TERA_RTOS_init+0x68>)
 8000e04:	4a0f      	ldr	r2, [pc, #60]	; (8000e44 <TERA_RTOS_init+0x6c>)
 8000e06:	ca07      	ldmia	r2, {r0, r1, r2}
 8000e08:	c303      	stmia	r3!, {r0, r1}
 8000e0a:	701a      	strb	r2, [r3, #0]
	teraRTOS_idleTask.Priority = 255;
 8000e0c:	4b0e      	ldr	r3, [pc, #56]	; (8000e48 <TERA_RTOS_init+0x70>)
 8000e0e:	22ff      	movs	r2, #255	; 0xff
 8000e10:	711a      	strb	r2, [r3, #4]
	teraRTOS_idleTask.TaskEntry_Ptr = idle_Task_fun;
 8000e12:	4b0d      	ldr	r3, [pc, #52]	; (8000e48 <TERA_RTOS_init+0x70>)
 8000e14:	4a0d      	ldr	r2, [pc, #52]	; (8000e4c <TERA_RTOS_init+0x74>)
 8000e16:	609a      	str	r2, [r3, #8]
	teraRTOS_idleTask.Stack_Size = 300;
 8000e18:	4b0b      	ldr	r3, [pc, #44]	; (8000e48 <TERA_RTOS_init+0x70>)
 8000e1a:	f44f 7296 	mov.w	r2, #300	; 0x12c
 8000e1e:	601a      	str	r2, [r3, #0]

	RTOS_Error = teraRTOS_CreateTask(&teraRTOS_idleTask);
 8000e20:	4809      	ldr	r0, [pc, #36]	; (8000e48 <TERA_RTOS_init+0x70>)
 8000e22:	f000 f853 	bl	8000ecc <teraRTOS_CreateTask>
 8000e26:	4603      	mov	r3, r0
 8000e28:	71fb      	strb	r3, [r7, #7]



	return RTOS_Error;
 8000e2a:	79fb      	ldrb	r3, [r7, #7]

}
 8000e2c:	4618      	mov	r0, r3
 8000e2e:	3708      	adds	r7, #8
 8000e30:	46bd      	mov	sp, r7
 8000e32:	bd80      	pop	{r7, pc}
 8000e34:	200003e8 	.word	0x200003e8
 8000e38:	20000258 	.word	0x20000258
 8000e3c:	20000240 	.word	0x20000240
 8000e40:	20000218 	.word	0x20000218
 8000e44:	080012ec 	.word	0x080012ec
 8000e48:	200001fc 	.word	0x200001fc
 8000e4c:	08000dbd 	.word	0x08000dbd

08000e50 <teraRTOS_Create_TaskStack>:


void teraRTOS_Create_TaskStack(Task_Creation * create_stack){
 8000e50:	b480      	push	{r7}
 8000e52:	b085      	sub	sp, #20
 8000e54:	af00      	add	r7, sp, #0
 8000e56:	6078      	str	r0, [r7, #4]
	 * R9
	 * R10
//New SP --> * R11
	 */

	create_stack->CurrentPSP =(uint32_t *) create_stack->_S_PSP_Task;
 8000e58:	687b      	ldr	r3, [r7, #4]
 8000e5a:	691b      	ldr	r3, [r3, #16]
 8000e5c:	461a      	mov	r2, r3
 8000e5e:	687b      	ldr	r3, [r7, #4]
 8000e60:	619a      	str	r2, [r3, #24]

	create_stack->CurrentPSP--;
 8000e62:	687b      	ldr	r3, [r7, #4]
 8000e64:	699b      	ldr	r3, [r3, #24]
 8000e66:	1f1a      	subs	r2, r3, #4
 8000e68:	687b      	ldr	r3, [r7, #4]
 8000e6a:	619a      	str	r2, [r3, #24]
	*(create_stack->CurrentPSP)=0x01000000;		//Dummy xPSR with T=1 to avoid Bus fault
 8000e6c:	687b      	ldr	r3, [r7, #4]
 8000e6e:	699b      	ldr	r3, [r3, #24]
 8000e70:	f04f 7280 	mov.w	r2, #16777216	; 0x1000000
 8000e74:	601a      	str	r2, [r3, #0]

	create_stack->CurrentPSP--;
 8000e76:	687b      	ldr	r3, [r7, #4]
 8000e78:	699b      	ldr	r3, [r3, #24]
 8000e7a:	1f1a      	subs	r2, r3, #4
 8000e7c:	687b      	ldr	r3, [r7, #4]
 8000e7e:	619a      	str	r2, [r3, #24]
	*(create_stack->CurrentPSP)=(unsigned int)create_stack->TaskEntry_Ptr;
 8000e80:	687b      	ldr	r3, [r7, #4]
 8000e82:	689a      	ldr	r2, [r3, #8]
 8000e84:	687b      	ldr	r3, [r7, #4]
 8000e86:	699b      	ldr	r3, [r3, #24]
 8000e88:	601a      	str	r2, [r3, #0]

	create_stack->CurrentPSP--;
 8000e8a:	687b      	ldr	r3, [r7, #4]
 8000e8c:	699b      	ldr	r3, [r3, #24]
 8000e8e:	1f1a      	subs	r2, r3, #4
 8000e90:	687b      	ldr	r3, [r7, #4]
 8000e92:	619a      	str	r2, [r3, #24]
	*(create_stack->CurrentPSP)=0xFFFFFFFD; // LR = 0xFFFFFFFD (EXC_RETURN) --> return to Thread with PSP
 8000e94:	687b      	ldr	r3, [r7, #4]
 8000e96:	699b      	ldr	r3, [r3, #24]
 8000e98:	f06f 0202 	mvn.w	r2, #2
 8000e9c:	601a      	str	r2, [r3, #0]

	int i;
	for(i=0; i<13; i++)
 8000e9e:	2300      	movs	r3, #0
 8000ea0:	60fb      	str	r3, [r7, #12]
 8000ea2:	e00b      	b.n	8000ebc <teraRTOS_Create_TaskStack+0x6c>
	{
		create_stack->CurrentPSP--;
 8000ea4:	687b      	ldr	r3, [r7, #4]
 8000ea6:	699b      	ldr	r3, [r3, #24]
 8000ea8:	1f1a      	subs	r2, r3, #4
 8000eaa:	687b      	ldr	r3, [r7, #4]
 8000eac:	619a      	str	r2, [r3, #24]
		*(create_stack->CurrentPSP)=0;
 8000eae:	687b      	ldr	r3, [r7, #4]
 8000eb0:	699b      	ldr	r3, [r3, #24]
 8000eb2:	2200      	movs	r2, #0
 8000eb4:	601a      	str	r2, [r3, #0]
	for(i=0; i<13; i++)
 8000eb6:	68fb      	ldr	r3, [r7, #12]
 8000eb8:	3301      	adds	r3, #1
 8000eba:	60fb      	str	r3, [r7, #12]
 8000ebc:	68fb      	ldr	r3, [r7, #12]
 8000ebe:	2b0c      	cmp	r3, #12
 8000ec0:	ddf0      	ble.n	8000ea4 <teraRTOS_Create_TaskStack+0x54>
	}




}
 8000ec2:	bf00      	nop
 8000ec4:	3714      	adds	r7, #20
 8000ec6:	46bd      	mov	sp, r7
 8000ec8:	bc80      	pop	{r7}
 8000eca:	4770      	bx	lr

08000ecc <teraRTOS_CreateTask>:


TERA_RTOS_ErrorType teraRTOS_CreateTask(Task_Creation* create){
 8000ecc:	b580      	push	{r7, lr}
 8000ece:	b084      	sub	sp, #16
 8000ed0:	af00      	add	r7, sp, #0
 8000ed2:	6078      	str	r0, [r7, #4]


	TERA_RTOS_ErrorType RTOS_Error = NoError;
 8000ed4:	2300      	movs	r3, #0
 8000ed6:	73fb      	strb	r3, [r7, #15]

	//Create its own PSP stack

	create->_S_PSP_Task = OS_Control.Task_PSP_LOCATOR;
 8000ed8:	4b19      	ldr	r3, [pc, #100]	; (8000f40 <teraRTOS_CreateTask+0x74>)
 8000eda:	f8d3 2198 	ldr.w	r2, [r3, #408]	; 0x198
 8000ede:	687b      	ldr	r3, [r7, #4]
 8000ee0:	611a      	str	r2, [r3, #16]
	create->_E_PSP_Task = create->_S_PSP_Task - create->Stack_Size;
 8000ee2:	687b      	ldr	r3, [r7, #4]
 8000ee4:	691a      	ldr	r2, [r3, #16]
 8000ee6:	687b      	ldr	r3, [r7, #4]
 8000ee8:	681b      	ldr	r3, [r3, #0]
 8000eea:	1ad2      	subs	r2, r2, r3
 8000eec:	687b      	ldr	r3, [r7, #4]
 8000eee:	615a      	str	r2, [r3, #20]

	//Check task stack size exceeded PSP stack or not

	if( create->_E_PSP_Task < (uint32_t)&(_eheap) )
 8000ef0:	687b      	ldr	r3, [r7, #4]
 8000ef2:	695b      	ldr	r3, [r3, #20]
 8000ef4:	4a13      	ldr	r2, [pc, #76]	; (8000f44 <teraRTOS_CreateTask+0x78>)
 8000ef6:	4293      	cmp	r3, r2
 8000ef8:	d201      	bcs.n	8000efe <teraRTOS_CreateTask+0x32>
	{
		return Task_exceeded_StackSize;
 8000efa:	2302      	movs	r3, #2
 8000efc:	e01b      	b.n	8000f36 <teraRTOS_CreateTask+0x6a>
	}

	//Aligned 8 bytes space between task PSP and other

	OS_Control.Task_PSP_LOCATOR = ( create->_E_PSP_Task - 8 );
 8000efe:	687b      	ldr	r3, [r7, #4]
 8000f00:	695b      	ldr	r3, [r3, #20]
 8000f02:	3b08      	subs	r3, #8
 8000f04:	4a0e      	ldr	r2, [pc, #56]	; (8000f40 <teraRTOS_CreateTask+0x74>)
 8000f06:	f8c2 3198 	str.w	r3, [r2, #408]	; 0x198


	//Initialize PSP task stack

	teraRTOS_Create_TaskStack(create);
 8000f0a:	6878      	ldr	r0, [r7, #4]
 8000f0c:	f7ff ffa0 	bl	8000e50 <teraRTOS_Create_TaskStack>


	OS_Control.OS_Tasks[OS_Control.ActiveTasks_number] = create;
 8000f10:	4b0b      	ldr	r3, [pc, #44]	; (8000f40 <teraRTOS_CreateTask+0x74>)
 8000f12:	f8d3 319c 	ldr.w	r3, [r3, #412]	; 0x19c
 8000f16:	490a      	ldr	r1, [pc, #40]	; (8000f40 <teraRTOS_CreateTask+0x74>)
 8000f18:	687a      	ldr	r2, [r7, #4]
 8000f1a:	f841 2023 	str.w	r2, [r1, r3, lsl #2]
	OS_Control.ActiveTasks_number++;
 8000f1e:	4b08      	ldr	r3, [pc, #32]	; (8000f40 <teraRTOS_CreateTask+0x74>)
 8000f20:	f8d3 319c 	ldr.w	r3, [r3, #412]	; 0x19c
 8000f24:	3301      	adds	r3, #1
 8000f26:	4a06      	ldr	r2, [pc, #24]	; (8000f40 <teraRTOS_CreateTask+0x74>)
 8000f28:	f8c2 319c 	str.w	r3, [r2, #412]	; 0x19c
	// Task state update --> Suspended

	create->TaskState = Suspended;
 8000f2c:	687b      	ldr	r3, [r7, #4]
 8000f2e:	2200      	movs	r2, #0
 8000f30:	f883 203a 	strb.w	r2, [r3, #58]	; 0x3a



	return RTOS_Error;
 8000f34:	7bfb      	ldrb	r3, [r7, #15]
}
 8000f36:	4618      	mov	r0, r3
 8000f38:	3710      	adds	r7, #16
 8000f3a:	46bd      	mov	sp, r7
 8000f3c:	bd80      	pop	{r7, pc}
 8000f3e:	bf00      	nop
 8000f40:	200003e8 	.word	0x200003e8
 8000f44:	20000b98 	.word	0x20000b98

08000f48 <teraRTOS_OS_SVC_Set>:
//Thread Mode
void teraRTOS_OS_SVC_Set(SVC_ID id){
 8000f48:	b480      	push	{r7}
 8000f4a:	b083      	sub	sp, #12
 8000f4c:	af00      	add	r7, sp, #0
 8000f4e:	4603      	mov	r3, r0
 8000f50:	71fb      	strb	r3, [r7, #7]

	switch(id)
 8000f52:	79fb      	ldrb	r3, [r7, #7]
 8000f54:	2b01      	cmp	r3, #1
 8000f56:	d006      	beq.n	8000f66 <teraRTOS_OS_SVC_Set+0x1e>
 8000f58:	2b02      	cmp	r3, #2
 8000f5a:	d006      	beq.n	8000f6a <teraRTOS_OS_SVC_Set+0x22>
 8000f5c:	2b00      	cmp	r3, #0
 8000f5e:	d000      	beq.n	8000f62 <teraRTOS_OS_SVC_Set+0x1a>

		break;

	}

}
 8000f60:	e005      	b.n	8000f6e <teraRTOS_OS_SVC_Set+0x26>
		__asm("SVC #0x0");
 8000f62:	df00      	svc	0
		break;
 8000f64:	e003      	b.n	8000f6e <teraRTOS_OS_SVC_Set+0x26>
		__asm("SVC #0x1");
 8000f66:	df01      	svc	1
		break;
 8000f68:	e001      	b.n	8000f6e <teraRTOS_OS_SVC_Set+0x26>
		__asm("SVC #0x2");
 8000f6a:	df02      	svc	2
		break;
 8000f6c:	bf00      	nop
}
 8000f6e:	bf00      	nop
 8000f70:	370c      	adds	r7, #12
 8000f72:	46bd      	mov	sp, r7
 8000f74:	bc80      	pop	{r7}
 8000f76:	4770      	bx	lr

08000f78 <teraRTOS_ActivateTask>:


TERA_RTOS_ErrorType teraRTOS_ActivateTask(Task_Creation * activate){
 8000f78:	b580      	push	{r7, lr}
 8000f7a:	b084      	sub	sp, #16
 8000f7c:	af00      	add	r7, sp, #0
 8000f7e:	6078      	str	r0, [r7, #4]

	TERA_RTOS_ErrorType error;
	error = NoError;
 8000f80:	2300      	movs	r3, #0
 8000f82:	73fb      	strb	r3, [r7, #15]

	activate->TaskState = Waiting;
 8000f84:	687b      	ldr	r3, [r7, #4]
 8000f86:	2202      	movs	r2, #2
 8000f88:	f883 203a 	strb.w	r2, [r3, #58]	; 0x3a
	teraRTOS_OS_SVC_Set(SVC_ActivateTask);
 8000f8c:	2000      	movs	r0, #0
 8000f8e:	f7ff ffdb 	bl	8000f48 <teraRTOS_OS_SVC_Set>



	return error;
 8000f92:	7bfb      	ldrb	r3, [r7, #15]

}
 8000f94:	4618      	mov	r0, r3
 8000f96:	3710      	adds	r7, #16
 8000f98:	46bd      	mov	sp, r7
 8000f9a:	bd80      	pop	{r7, pc}

08000f9c <teraRTOS_TerminateTask>:
TERA_RTOS_ErrorType teraRTOS_TerminateTask(Task_Creation * terminate){
 8000f9c:	b580      	push	{r7, lr}
 8000f9e:	b084      	sub	sp, #16
 8000fa0:	af00      	add	r7, sp, #0
 8000fa2:	6078      	str	r0, [r7, #4]

	TERA_RTOS_ErrorType error;
	error = NoError;
 8000fa4:	2300      	movs	r3, #0
 8000fa6:	73fb      	strb	r3, [r7, #15]

	terminate->TaskState = Suspended;
 8000fa8:	687b      	ldr	r3, [r7, #4]
 8000faa:	2200      	movs	r2, #0
 8000fac:	f883 203a 	strb.w	r2, [r3, #58]	; 0x3a
	teraRTOS_OS_SVC_Set(SVC_TerminateTask);
 8000fb0:	2001      	movs	r0, #1
 8000fb2:	f7ff ffc9 	bl	8000f48 <teraRTOS_OS_SVC_Set>




	return error;
 8000fb6:	7bfb      	ldrb	r3, [r7, #15]



}
 8000fb8:	4618      	mov	r0, r3
 8000fba:	3710      	adds	r7, #16
 8000fbc:	46bd      	mov	sp, r7
 8000fbe:	bd80      	pop	{r7, pc}

08000fc0 <teraRTOS_START>:
	//Task should be suspended
	//Then should be terminated
	teraRTOS_TerminateTask(task_w8);

}
void teraRTOS_START(){
 8000fc0:	b580      	push	{r7, lr}
 8000fc2:	af00      	add	r7, sp, #0

	OS_Control.OS_Modes = OSrunning;
 8000fc4:	4b12      	ldr	r3, [pc, #72]	; (8001010 <teraRTOS_START+0x50>)
 8000fc6:	2201      	movs	r2, #1
 8000fc8:	f883 21a8 	strb.w	r2, [r3, #424]	; 0x1a8
	//Set default Current Task == idleTask
	OS_Control.CurrentTask = &teraRTOS_idleTask;
 8000fcc:	4b10      	ldr	r3, [pc, #64]	; (8001010 <teraRTOS_START+0x50>)
 8000fce:	4a11      	ldr	r2, [pc, #68]	; (8001014 <teraRTOS_START+0x54>)
 8000fd0:	f8c3 21a0 	str.w	r2, [r3, #416]	; 0x1a0
	//Activate idle task
	teraRTOS_ActivateTask(&teraRTOS_idleTask);
 8000fd4:	480f      	ldr	r0, [pc, #60]	; (8001014 <teraRTOS_START+0x54>)
 8000fd6:	f7ff ffcf 	bl	8000f78 <teraRTOS_ActivateTask>
	//Start ticker
	Start_Ticker(); // Every 1ms
 8000fda:	f7ff fc99 	bl	8000910 <Start_Ticker>

	OS_SET_PSP(OS_Control.CurrentTask->CurrentPSP);
 8000fde:	4b0c      	ldr	r3, [pc, #48]	; (8001010 <teraRTOS_START+0x50>)
 8000fe0:	f8d3 31a0 	ldr.w	r3, [r3, #416]	; 0x1a0
 8000fe4:	699b      	ldr	r3, [r3, #24]
 8000fe6:	f383 8809 	msr	PSP, r3

	//Switch from MSP to PSP
	OS_SWITCH_SP_to_PSP;
 8000fea:	f3ef 8014 	mrs	r0, CONTROL
 8000fee:	f04f 0102 	mov.w	r1, #2
 8000ff2:	ea40 0001 	orr.w	r0, r0, r1
 8000ff6:	f380 8814 	msr	CONTROL, r0

	Switch_CPU_AccessLevel_Unprivilege;
 8000ffa:	f3ef 8314 	mrs	r3, CONTROL
 8000ffe:	f043 0301 	orr.w	r3, r3, #1
 8001002:	f383 8814 	msr	CONTROL, r3

	teraRTOS_idleTask.TaskEntry_Ptr();
 8001006:	4b03      	ldr	r3, [pc, #12]	; (8001014 <teraRTOS_START+0x54>)
 8001008:	689b      	ldr	r3, [r3, #8]
 800100a:	4798      	blx	r3


}
 800100c:	bf00      	nop
 800100e:	bd80      	pop	{r7, pc}
 8001010:	200003e8 	.word	0x200003e8
 8001014:	200001fc 	.word	0x200001fc

08001018 <teraRTOS_Update_TaskWaitingTime>:

void teraRTOS_Update_TaskWaitingTime()
{
 8001018:	b580      	push	{r7, lr}
 800101a:	b082      	sub	sp, #8
 800101c:	af00      	add	r7, sp, #0
	int i=0;
 800101e:	2300      	movs	r3, #0
 8001020:	607b      	str	r3, [r7, #4]
	for(i=0; i<OS_Control.ActiveTasks_number; i++)
 8001022:	2300      	movs	r3, #0
 8001024:	607b      	str	r3, [r7, #4]
 8001026:	e031      	b.n	800108c <teraRTOS_Update_TaskWaitingTime+0x74>
	{

		if(OS_Control.OS_Tasks[i]->TaskState == Suspended)
 8001028:	4a1d      	ldr	r2, [pc, #116]	; (80010a0 <teraRTOS_Update_TaskWaitingTime+0x88>)
 800102a:	687b      	ldr	r3, [r7, #4]
 800102c:	f852 3023 	ldr.w	r3, [r2, r3, lsl #2]
 8001030:	f893 303a 	ldrb.w	r3, [r3, #58]	; 0x3a
 8001034:	2b00      	cmp	r3, #0
 8001036:	d126      	bne.n	8001086 <teraRTOS_Update_TaskWaitingTime+0x6e>
		{
			if(OS_Control.OS_Tasks[i]->Task_WaitingTime.Blocking == Block_Enable)
 8001038:	4a19      	ldr	r2, [pc, #100]	; (80010a0 <teraRTOS_Update_TaskWaitingTime+0x88>)
 800103a:	687b      	ldr	r3, [r7, #4]
 800103c:	f852 3023 	ldr.w	r3, [r2, r3, lsl #2]
 8001040:	f893 303c 	ldrb.w	r3, [r3, #60]	; 0x3c
 8001044:	2b00      	cmp	r3, #0
 8001046:	d11e      	bne.n	8001086 <teraRTOS_Update_TaskWaitingTime+0x6e>
			{
				OS_Control.OS_Tasks[i]->Task_WaitingTime.Ticks_Number--;
 8001048:	4a15      	ldr	r2, [pc, #84]	; (80010a0 <teraRTOS_Update_TaskWaitingTime+0x88>)
 800104a:	687b      	ldr	r3, [r7, #4]
 800104c:	f852 3023 	ldr.w	r3, [r2, r3, lsl #2]
 8001050:	6c1a      	ldr	r2, [r3, #64]	; 0x40
 8001052:	3a01      	subs	r2, #1
 8001054:	641a      	str	r2, [r3, #64]	; 0x40
				if(OS_Control.OS_Tasks[i]->Task_WaitingTime.Ticks_Number == 0)
 8001056:	4a12      	ldr	r2, [pc, #72]	; (80010a0 <teraRTOS_Update_TaskWaitingTime+0x88>)
 8001058:	687b      	ldr	r3, [r7, #4]
 800105a:	f852 3023 	ldr.w	r3, [r2, r3, lsl #2]
 800105e:	6c1b      	ldr	r3, [r3, #64]	; 0x40
 8001060:	2b00      	cmp	r3, #0
 8001062:	d110      	bne.n	8001086 <teraRTOS_Update_TaskWaitingTime+0x6e>
				{
					OS_Control.OS_Tasks[i]->Task_WaitingTime.Blocking = Block_Disable;
 8001064:	4a0e      	ldr	r2, [pc, #56]	; (80010a0 <teraRTOS_Update_TaskWaitingTime+0x88>)
 8001066:	687b      	ldr	r3, [r7, #4]
 8001068:	f852 3023 	ldr.w	r3, [r2, r3, lsl #2]
 800106c:	2201      	movs	r2, #1
 800106e:	f883 203c 	strb.w	r2, [r3, #60]	; 0x3c
					OS_Control.OS_Tasks[i]->TaskState = Waiting;
 8001072:	4a0b      	ldr	r2, [pc, #44]	; (80010a0 <teraRTOS_Update_TaskWaitingTime+0x88>)
 8001074:	687b      	ldr	r3, [r7, #4]
 8001076:	f852 3023 	ldr.w	r3, [r2, r3, lsl #2]
 800107a:	2202      	movs	r2, #2
 800107c:	f883 203a 	strb.w	r2, [r3, #58]	; 0x3a
					teraRTOS_OS_SVC_Set(SVC_WaitingTask);
 8001080:	2002      	movs	r0, #2
 8001082:	f7ff ff61 	bl	8000f48 <teraRTOS_OS_SVC_Set>
	for(i=0; i<OS_Control.ActiveTasks_number; i++)
 8001086:	687b      	ldr	r3, [r7, #4]
 8001088:	3301      	adds	r3, #1
 800108a:	607b      	str	r3, [r7, #4]
 800108c:	4b04      	ldr	r3, [pc, #16]	; (80010a0 <teraRTOS_Update_TaskWaitingTime+0x88>)
 800108e:	f8d3 219c 	ldr.w	r2, [r3, #412]	; 0x19c
 8001092:	687b      	ldr	r3, [r7, #4]
 8001094:	429a      	cmp	r2, r3
 8001096:	d8c7      	bhi.n	8001028 <teraRTOS_Update_TaskWaitingTime+0x10>
			}

		}
	}

}
 8001098:	bf00      	nop
 800109a:	3708      	adds	r7, #8
 800109c:	46bd      	mov	sp, r7
 800109e:	bd80      	pop	{r7, pc}
 80010a0:	200003e8 	.word	0x200003e8

080010a4 <teraRTOS_AcquireMutex>:

TERA_RTOS_ErrorType teraRTOS_AcquireMutex(Mutex_Creation * mutex, Task_Creation * user){
 80010a4:	b580      	push	{r7, lr}
 80010a6:	b082      	sub	sp, #8
 80010a8:	af00      	add	r7, sp, #0
 80010aa:	6078      	str	r0, [r7, #4]
 80010ac:	6039      	str	r1, [r7, #0]

	if(mutex->CurrentTaskUser == NULL)
 80010ae:	687b      	ldr	r3, [r7, #4]
 80010b0:	689b      	ldr	r3, [r3, #8]
 80010b2:	2b00      	cmp	r3, #0
 80010b4:	d104      	bne.n	80010c0 <teraRTOS_AcquireMutex+0x1c>
	{
		mutex->CurrentTaskUser = user;
 80010b6:	687b      	ldr	r3, [r7, #4]
 80010b8:	683a      	ldr	r2, [r7, #0]
 80010ba:	609a      	str	r2, [r3, #8]

		return NoError;
 80010bc:	2300      	movs	r3, #0
 80010be:	e00c      	b.n	80010da <teraRTOS_AcquireMutex+0x36>
	}

	else
	{
		if(mutex->NextTaskUser == NULL)
 80010c0:	687b      	ldr	r3, [r7, #4]
 80010c2:	68db      	ldr	r3, [r3, #12]
 80010c4:	2b00      	cmp	r3, #0
 80010c6:	d107      	bne.n	80010d8 <teraRTOS_AcquireMutex+0x34>
		{
			mutex->NextTaskUser = user;
 80010c8:	687b      	ldr	r3, [r7, #4]
 80010ca:	683a      	ldr	r2, [r7, #0]
 80010cc:	60da      	str	r2, [r3, #12]
			teraRTOS_TerminateTask(user);
 80010ce:	6838      	ldr	r0, [r7, #0]
 80010d0:	f7ff ff64 	bl	8000f9c <teraRTOS_TerminateTask>

			return NoError;
 80010d4:	2300      	movs	r3, #0
 80010d6:	e000      	b.n	80010da <teraRTOS_AcquireMutex+0x36>
		}
		else
		{
			return MutexFull;
 80010d8:	2303      	movs	r3, #3
		}

	}
}
 80010da:	4618      	mov	r0, r3
 80010dc:	3708      	adds	r7, #8
 80010de:	46bd      	mov	sp, r7
 80010e0:	bd80      	pop	{r7, pc}

080010e2 <teraRTOS_ReleaseMutex>:

TERA_RTOS_ErrorType teraRTOS_ReleaseMutex(Mutex_Creation * mutex){
 80010e2:	b580      	push	{r7, lr}
 80010e4:	b082      	sub	sp, #8
 80010e6:	af00      	add	r7, sp, #0
 80010e8:	6078      	str	r0, [r7, #4]

	if(mutex->CurrentTaskUser != NULL)
 80010ea:	687b      	ldr	r3, [r7, #4]
 80010ec:	689b      	ldr	r3, [r3, #8]
 80010ee:	2b00      	cmp	r3, #0
 80010f0:	d00d      	beq.n	800110e <teraRTOS_ReleaseMutex+0x2c>
	{
		mutex->CurrentTaskUser = mutex->NextTaskUser;
 80010f2:	687b      	ldr	r3, [r7, #4]
 80010f4:	68da      	ldr	r2, [r3, #12]
 80010f6:	687b      	ldr	r3, [r7, #4]
 80010f8:	609a      	str	r2, [r3, #8]
		mutex->NextTaskUser = NULL ;
 80010fa:	687b      	ldr	r3, [r7, #4]
 80010fc:	2200      	movs	r2, #0
 80010fe:	60da      	str	r2, [r3, #12]
		teraRTOS_ActivateTask(mutex->CurrentTaskUser);
 8001100:	687b      	ldr	r3, [r7, #4]
 8001102:	689b      	ldr	r3, [r3, #8]
 8001104:	4618      	mov	r0, r3
 8001106:	f7ff ff37 	bl	8000f78 <teraRTOS_ActivateTask>

		return NoError;
 800110a:	2300      	movs	r3, #0
 800110c:	e000      	b.n	8001110 <teraRTOS_ReleaseMutex+0x2e>
	}
	else
	{
		return MutexAlreadyReleased;
 800110e:	2304      	movs	r3, #4
	}

}
 8001110:	4618      	mov	r0, r3
 8001112:	3708      	adds	r7, #8
 8001114:	46bd      	mov	sp, r7
 8001116:	bd80      	pop	{r7, pc}

08001118 <FIFO_init>:
 */


#include "TERA_RTOS_FIFO.h"
/* *********************************** */
Buffer_status FIFO_init (FIFO_Buf_t* fifo,element_type * buff , unsigned int length){
 8001118:	b480      	push	{r7}
 800111a:	b085      	sub	sp, #20
 800111c:	af00      	add	r7, sp, #0
 800111e:	60f8      	str	r0, [r7, #12]
 8001120:	60b9      	str	r1, [r7, #8]
 8001122:	607a      	str	r2, [r7, #4]

	if(!buff )
 8001124:	68bb      	ldr	r3, [r7, #8]
 8001126:	2b00      	cmp	r3, #0
 8001128:	d101      	bne.n	800112e <FIFO_init+0x16>
		return FIFO_NULL;
 800112a:	2303      	movs	r3, #3
 800112c:	e011      	b.n	8001152 <FIFO_init+0x3a>

	fifo->base = buff ;
 800112e:	68fb      	ldr	r3, [r7, #12]
 8001130:	68ba      	ldr	r2, [r7, #8]
 8001132:	60da      	str	r2, [r3, #12]
	fifo->head = fifo->base ;
 8001134:	68fb      	ldr	r3, [r7, #12]
 8001136:	68da      	ldr	r2, [r3, #12]
 8001138:	68fb      	ldr	r3, [r7, #12]
 800113a:	605a      	str	r2, [r3, #4]
	fifo->tail = fifo->base ;
 800113c:	68fb      	ldr	r3, [r7, #12]
 800113e:	68da      	ldr	r2, [r3, #12]
 8001140:	68fb      	ldr	r3, [r7, #12]
 8001142:	609a      	str	r2, [r3, #8]
	fifo->length = length;
 8001144:	68fb      	ldr	r3, [r7, #12]
 8001146:	687a      	ldr	r2, [r7, #4]
 8001148:	611a      	str	r2, [r3, #16]
	fifo->counter=0;
 800114a:	68fb      	ldr	r3, [r7, #12]
 800114c:	2200      	movs	r2, #0
 800114e:	601a      	str	r2, [r3, #0]

	return FIFO_NO_ERROR;
 8001150:	2300      	movs	r3, #0

}
 8001152:	4618      	mov	r0, r3
 8001154:	3714      	adds	r7, #20
 8001156:	46bd      	mov	sp, r7
 8001158:	bc80      	pop	{r7}
 800115a:	4770      	bx	lr

0800115c <FIFO_enqueue>:

/* *********************************** */

Buffer_status FIFO_enqueue (FIFO_Buf_t* fifo,element_type item){
 800115c:	b480      	push	{r7}
 800115e:	b083      	sub	sp, #12
 8001160:	af00      	add	r7, sp, #0
 8001162:	6078      	str	r0, [r7, #4]
 8001164:	6039      	str	r1, [r7, #0]

	/* fifo null*/

	if (!fifo->base || !fifo->length)
 8001166:	687b      	ldr	r3, [r7, #4]
 8001168:	68db      	ldr	r3, [r3, #12]
 800116a:	2b00      	cmp	r3, #0
 800116c:	d003      	beq.n	8001176 <FIFO_enqueue+0x1a>
 800116e:	687b      	ldr	r3, [r7, #4]
 8001170:	691b      	ldr	r3, [r3, #16]
 8001172:	2b00      	cmp	r3, #0
 8001174:	d101      	bne.n	800117a <FIFO_enqueue+0x1e>
		return FIFO_NULL;
 8001176:	2303      	movs	r3, #3
 8001178:	e02d      	b.n	80011d6 <FIFO_enqueue+0x7a>
	/*fifo is full*/

	/* fifo full */
	if ((fifo->head == fifo->tail) && (fifo->counter == fifo->length))
 800117a:	687b      	ldr	r3, [r7, #4]
 800117c:	685a      	ldr	r2, [r3, #4]
 800117e:	687b      	ldr	r3, [r7, #4]
 8001180:	689b      	ldr	r3, [r3, #8]
 8001182:	429a      	cmp	r2, r3
 8001184:	d107      	bne.n	8001196 <FIFO_enqueue+0x3a>
 8001186:	687b      	ldr	r3, [r7, #4]
 8001188:	681a      	ldr	r2, [r3, #0]
 800118a:	687b      	ldr	r3, [r7, #4]
 800118c:	691b      	ldr	r3, [r3, #16]
 800118e:	429a      	cmp	r2, r3
 8001190:	d101      	bne.n	8001196 <FIFO_enqueue+0x3a>
		return FIFO_FULL;
 8001192:	2301      	movs	r3, #1
 8001194:	e01f      	b.n	80011d6 <FIFO_enqueue+0x7a>

	*(fifo->tail)=item;
 8001196:	687b      	ldr	r3, [r7, #4]
 8001198:	689b      	ldr	r3, [r3, #8]
 800119a:	683a      	ldr	r2, [r7, #0]
 800119c:	601a      	str	r2, [r3, #0]
	fifo->counter++;
 800119e:	687b      	ldr	r3, [r7, #4]
 80011a0:	681b      	ldr	r3, [r3, #0]
 80011a2:	1c5a      	adds	r2, r3, #1
 80011a4:	687b      	ldr	r3, [r7, #4]
 80011a6:	601a      	str	r2, [r3, #0]

	/*for circular fifo again */

	/* circular enqueue */
	if (fifo->tail == (((unsigned int)fifo->base + (4*fifo->length )) - 4 ))
 80011a8:	687b      	ldr	r3, [r7, #4]
 80011aa:	689b      	ldr	r3, [r3, #8]
 80011ac:	687a      	ldr	r2, [r7, #4]
 80011ae:	68d2      	ldr	r2, [r2, #12]
 80011b0:	4611      	mov	r1, r2
 80011b2:	687a      	ldr	r2, [r7, #4]
 80011b4:	6912      	ldr	r2, [r2, #16]
 80011b6:	0092      	lsls	r2, r2, #2
 80011b8:	440a      	add	r2, r1
 80011ba:	3a04      	subs	r2, #4
 80011bc:	4293      	cmp	r3, r2
 80011be:	d104      	bne.n	80011ca <FIFO_enqueue+0x6e>
		fifo->tail = fifo->base;
 80011c0:	687b      	ldr	r3, [r7, #4]
 80011c2:	68da      	ldr	r2, [r3, #12]
 80011c4:	687b      	ldr	r3, [r7, #4]
 80011c6:	609a      	str	r2, [r3, #8]
 80011c8:	e004      	b.n	80011d4 <FIFO_enqueue+0x78>
	else
		fifo->tail++;
 80011ca:	687b      	ldr	r3, [r7, #4]
 80011cc:	689b      	ldr	r3, [r3, #8]
 80011ce:	1d1a      	adds	r2, r3, #4
 80011d0:	687b      	ldr	r3, [r7, #4]
 80011d2:	609a      	str	r2, [r3, #8]

	return FIFO_NO_ERROR;
 80011d4:	2300      	movs	r3, #0


}
 80011d6:	4618      	mov	r0, r3
 80011d8:	370c      	adds	r7, #12
 80011da:	46bd      	mov	sp, r7
 80011dc:	bc80      	pop	{r7}
 80011de:	4770      	bx	lr

080011e0 <FIFO_dequeue>:

/* *********************************** */

Buffer_status FIFO_dequeue (FIFO_Buf_t* fifo, element_type * item){
 80011e0:	b480      	push	{r7}
 80011e2:	b083      	sub	sp, #12
 80011e4:	af00      	add	r7, sp, #0
 80011e6:	6078      	str	r0, [r7, #4]
 80011e8:	6039      	str	r1, [r7, #0]
	/* check fifo valid */
	if (!fifo->base || !fifo->length)
 80011ea:	687b      	ldr	r3, [r7, #4]
 80011ec:	68db      	ldr	r3, [r3, #12]
 80011ee:	2b00      	cmp	r3, #0
 80011f0:	d003      	beq.n	80011fa <FIFO_dequeue+0x1a>
 80011f2:	687b      	ldr	r3, [r7, #4]
 80011f4:	691b      	ldr	r3, [r3, #16]
 80011f6:	2b00      	cmp	r3, #0
 80011f8:	d101      	bne.n	80011fe <FIFO_dequeue+0x1e>
		return FIFO_NULL;
 80011fa:	2303      	movs	r3, #3
 80011fc:	e028      	b.n	8001250 <FIFO_dequeue+0x70>

	/* fifo empty */
	if (fifo->head == fifo->tail)
 80011fe:	687b      	ldr	r3, [r7, #4]
 8001200:	685a      	ldr	r2, [r3, #4]
 8001202:	687b      	ldr	r3, [r7, #4]
 8001204:	689b      	ldr	r3, [r3, #8]
 8001206:	429a      	cmp	r2, r3
 8001208:	d101      	bne.n	800120e <FIFO_dequeue+0x2e>
		return FIFO_EMPTY;
 800120a:	2302      	movs	r3, #2
 800120c:	e020      	b.n	8001250 <FIFO_dequeue+0x70>



	*item = *(fifo->head);
 800120e:	687b      	ldr	r3, [r7, #4]
 8001210:	685b      	ldr	r3, [r3, #4]
 8001212:	681a      	ldr	r2, [r3, #0]
 8001214:	683b      	ldr	r3, [r7, #0]
 8001216:	601a      	str	r2, [r3, #0]
	fifo->counter--;
 8001218:	687b      	ldr	r3, [r7, #4]
 800121a:	681b      	ldr	r3, [r3, #0]
 800121c:	1e5a      	subs	r2, r3, #1
 800121e:	687b      	ldr	r3, [r7, #4]
 8001220:	601a      	str	r2, [r3, #0]

	/* circular dequeue */
	if (fifo->head == (((unsigned int)fifo->base + (4*fifo->length )) - 4 ))
 8001222:	687b      	ldr	r3, [r7, #4]
 8001224:	685b      	ldr	r3, [r3, #4]
 8001226:	687a      	ldr	r2, [r7, #4]
 8001228:	68d2      	ldr	r2, [r2, #12]
 800122a:	4611      	mov	r1, r2
 800122c:	687a      	ldr	r2, [r7, #4]
 800122e:	6912      	ldr	r2, [r2, #16]
 8001230:	0092      	lsls	r2, r2, #2
 8001232:	440a      	add	r2, r1
 8001234:	3a04      	subs	r2, #4
 8001236:	4293      	cmp	r3, r2
 8001238:	d104      	bne.n	8001244 <FIFO_dequeue+0x64>
		fifo->head = fifo->base;
 800123a:	687b      	ldr	r3, [r7, #4]
 800123c:	68da      	ldr	r2, [r3, #12]
 800123e:	687b      	ldr	r3, [r7, #4]
 8001240:	605a      	str	r2, [r3, #4]
 8001242:	e004      	b.n	800124e <FIFO_dequeue+0x6e>
	else
		fifo->head++;
 8001244:	687b      	ldr	r3, [r7, #4]
 8001246:	685b      	ldr	r3, [r3, #4]
 8001248:	1d1a      	adds	r2, r3, #4
 800124a:	687b      	ldr	r3, [r7, #4]
 800124c:	605a      	str	r2, [r3, #4]

	return FIFO_NO_ERROR;
 800124e:	2300      	movs	r3, #0
}
 8001250:	4618      	mov	r0, r3
 8001252:	370c      	adds	r7, #12
 8001254:	46bd      	mov	sp, r7
 8001256:	bc80      	pop	{r7}
 8001258:	4770      	bx	lr
	...

0800125c <__libc_init_array>:
 800125c:	b570      	push	{r4, r5, r6, lr}
 800125e:	2500      	movs	r5, #0
 8001260:	4e0c      	ldr	r6, [pc, #48]	; (8001294 <__libc_init_array+0x38>)
 8001262:	4c0d      	ldr	r4, [pc, #52]	; (8001298 <__libc_init_array+0x3c>)
 8001264:	1ba4      	subs	r4, r4, r6
 8001266:	10a4      	asrs	r4, r4, #2
 8001268:	42a5      	cmp	r5, r4
 800126a:	d109      	bne.n	8001280 <__libc_init_array+0x24>
 800126c:	f000 f81a 	bl	80012a4 <_init>
 8001270:	2500      	movs	r5, #0
 8001272:	4e0a      	ldr	r6, [pc, #40]	; (800129c <__libc_init_array+0x40>)
 8001274:	4c0a      	ldr	r4, [pc, #40]	; (80012a0 <__libc_init_array+0x44>)
 8001276:	1ba4      	subs	r4, r4, r6
 8001278:	10a4      	asrs	r4, r4, #2
 800127a:	42a5      	cmp	r5, r4
 800127c:	d105      	bne.n	800128a <__libc_init_array+0x2e>
 800127e:	bd70      	pop	{r4, r5, r6, pc}
 8001280:	f856 3025 	ldr.w	r3, [r6, r5, lsl #2]
 8001284:	4798      	blx	r3
 8001286:	3501      	adds	r5, #1
 8001288:	e7ee      	b.n	8001268 <__libc_init_array+0xc>
 800128a:	f856 3025 	ldr.w	r3, [r6, r5, lsl #2]
 800128e:	4798      	blx	r3
 8001290:	3501      	adds	r5, #1
 8001292:	e7f2      	b.n	800127a <__libc_init_array+0x1e>
 8001294:	080012f8 	.word	0x080012f8
 8001298:	080012f8 	.word	0x080012f8
 800129c:	080012f8 	.word	0x080012f8
 80012a0:	080012fc 	.word	0x080012fc

080012a4 <_init>:
 80012a4:	b5f8      	push	{r3, r4, r5, r6, r7, lr}
 80012a6:	bf00      	nop
 80012a8:	bcf8      	pop	{r3, r4, r5, r6, r7}
 80012aa:	bc08      	pop	{r3}
 80012ac:	469e      	mov	lr, r3
 80012ae:	4770      	bx	lr

080012b0 <_fini>:
 80012b0:	b5f8      	push	{r3, r4, r5, r6, r7, lr}
 80012b2:	bf00      	nop
 80012b4:	bcf8      	pop	{r3, r4, r5, r6, r7}
 80012b6:	bc08      	pop	{r3}
 80012b8:	469e      	mov	lr, r3
 80012ba:	4770      	bx	lr
