
Drivers1.elf:     file format elf32-littlearm


Disassembly of section .isr_vector:

08000000 <g_pfnVectors>:
 8000000:	20002800 	andcs	r2, r0, r0, lsl #16
 8000004:	0800060d 	stmdaeq	r0, {r0, r2, r3, r9, sl}
 8000008:	0800065d 	stmdaeq	r0, {r0, r2, r3, r4, r6, r9, sl}
 800000c:	0800065d 	stmdaeq	r0, {r0, r2, r3, r4, r6, r9, sl}
 8000010:	0800065d 	stmdaeq	r0, {r0, r2, r3, r4, r6, r9, sl}
 8000014:	0800065d 	stmdaeq	r0, {r0, r2, r3, r4, r6, r9, sl}
 8000018:	0800065d 	stmdaeq	r0, {r0, r2, r3, r4, r6, r9, sl}
	...
 800002c:	08000585 	stmdaeq	r0, {r0, r2, r7, r8, sl}
 8000030:	0800065d 	stmdaeq	r0, {r0, r2, r3, r4, r6, r9, sl}
 8000034:	00000000 	andeq	r0, r0, r0
 8000038:	08000599 	stmdaeq	r0, {r0, r3, r4, r7, r8, sl}
 800003c:	0800065d 	stmdaeq	r0, {r0, r2, r3, r4, r6, r9, sl}
 8000040:	0800065d 	stmdaeq	r0, {r0, r2, r3, r4, r6, r9, sl}
 8000044:	0800065d 	stmdaeq	r0, {r0, r2, r3, r4, r6, r9, sl}
 8000048:	0800065d 	stmdaeq	r0, {r0, r2, r3, r4, r6, r9, sl}
 800004c:	0800065d 	stmdaeq	r0, {r0, r2, r3, r4, r6, r9, sl}
 8000050:	0800065d 	stmdaeq	r0, {r0, r2, r3, r4, r6, r9, sl}
 8000054:	0800065d 	stmdaeq	r0, {r0, r2, r3, r4, r6, r9, sl}
 8000058:	08000171 	stmdaeq	r0, {r0, r4, r5, r6, r8}
 800005c:	08000195 	stmdaeq	r0, {r0, r2, r4, r7, r8}
 8000060:	080001b9 	stmdaeq	r0, {r0, r3, r4, r5, r7, r8}
 8000064:	080001dd 	stmdaeq	r0, {r0, r2, r3, r4, r6, r7, r8}
 8000068:	08000201 	stmdaeq	r0, {r0, r9}
 800006c:	0800065d 	stmdaeq	r0, {r0, r2, r3, r4, r6, r9, sl}
 8000070:	0800065d 	stmdaeq	r0, {r0, r2, r3, r4, r6, r9, sl}
 8000074:	0800065d 	stmdaeq	r0, {r0, r2, r3, r4, r6, r9, sl}
 8000078:	0800065d 	stmdaeq	r0, {r0, r2, r3, r4, r6, r9, sl}
 800007c:	0800065d 	stmdaeq	r0, {r0, r2, r3, r4, r6, r9, sl}
 8000080:	0800065d 	stmdaeq	r0, {r0, r2, r3, r4, r6, r9, sl}
 8000084:	0800065d 	stmdaeq	r0, {r0, r2, r3, r4, r6, r9, sl}
 8000088:	0800065d 	stmdaeq	r0, {r0, r2, r3, r4, r6, r9, sl}
 800008c:	0800065d 	stmdaeq	r0, {r0, r2, r3, r4, r6, r9, sl}
 8000090:	0800065d 	stmdaeq	r0, {r0, r2, r3, r4, r6, r9, sl}
 8000094:	0800065d 	stmdaeq	r0, {r0, r2, r3, r4, r6, r9, sl}
 8000098:	0800065d 	stmdaeq	r0, {r0, r2, r3, r4, r6, r9, sl}
 800009c:	08000225 	stmdaeq	r0, {r0, r2, r5, r9}
 80000a0:	0800065d 	stmdaeq	r0, {r0, r2, r3, r4, r6, r9, sl}
 80000a4:	0800065d 	stmdaeq	r0, {r0, r2, r3, r4, r6, r9, sl}
 80000a8:	0800065d 	stmdaeq	r0, {r0, r2, r3, r4, r6, r9, sl}
 80000ac:	0800065d 	stmdaeq	r0, {r0, r2, r3, r4, r6, r9, sl}
 80000b0:	0800065d 	stmdaeq	r0, {r0, r2, r3, r4, r6, r9, sl}
 80000b4:	0800065d 	stmdaeq	r0, {r0, r2, r3, r4, r6, r9, sl}
 80000b8:	0800065d 	stmdaeq	r0, {r0, r2, r3, r4, r6, r9, sl}
 80000bc:	080003a9 	stmdaeq	r0, {r0, r3, r5, r7, r8, r9}
 80000c0:	0800039d 	stmdaeq	r0, {r0, r2, r3, r4, r7, r8, r9}
 80000c4:	080003c1 	stmdaeq	r0, {r0, r6, r7, r8, r9}
 80000c8:	080003b5 	stmdaeq	r0, {r0, r2, r4, r5, r7, r8, r9}
 80000cc:	080003cd 	stmdaeq	r0, {r0, r2, r3, r6, r7, r8, r9}
 80000d0:	08000415 	stmdaeq	r0, {r0, r2, r4, sl}
 80000d4:	0800045d 	stmdaeq	r0, {r0, r2, r3, r4, r6, sl}
 80000d8:	0800065d 	stmdaeq	r0, {r0, r2, r3, r4, r6, r9, sl}
 80000dc:	0800065d 	stmdaeq	r0, {r0, r2, r3, r4, r6, r9, sl}
 80000e0:	080002cd 	stmdaeq	r0, {r0, r2, r3, r6, r7, r9}
 80000e4:	0800065d 	stmdaeq	r0, {r0, r2, r3, r4, r6, r9, sl}
 80000e8:	00000000 	andeq	r0, r0, r0
 80000ec:	0800065d 	stmdaeq	r0, {r0, r2, r3, r4, r6, r9, sl}
 80000f0:	0800065d 	stmdaeq	r0, {r0, r2, r3, r4, r6, r9, sl}
 80000f4:	0800065d 	stmdaeq	r0, {r0, r2, r3, r4, r6, r9, sl}
 80000f8:	0800065d 	stmdaeq	r0, {r0, r2, r3, r4, r6, r9, sl}
 80000fc:	0800065d 	stmdaeq	r0, {r0, r2, r3, r4, r6, r9, sl}
 8000100:	0800065d 	stmdaeq	r0, {r0, r2, r3, r4, r6, r9, sl}
 8000104:	0800065d 	stmdaeq	r0, {r0, r2, r3, r4, r6, r9, sl}
 8000108:	0800065d 	stmdaeq	r0, {r0, r2, r3, r4, r6, r9, sl}
 800010c:	0800065d 	stmdaeq	r0, {r0, r2, r3, r4, r6, r9, sl}
 8000110:	0800065d 	stmdaeq	r0, {r0, r2, r3, r4, r6, r9, sl}
 8000114:	0800065d 	stmdaeq	r0, {r0, r2, r3, r4, r6, r9, sl}
 8000118:	0800065d 	stmdaeq	r0, {r0, r2, r3, r4, r6, r9, sl}
 800011c:	0800065d 	stmdaeq	r0, {r0, r2, r3, r4, r6, r9, sl}
 8000120:	0800065d 	stmdaeq	r0, {r0, r2, r3, r4, r6, r9, sl}
 8000124:	0800065d 	stmdaeq	r0, {r0, r2, r3, r4, r6, r9, sl}
 8000128:	0800065d 	stmdaeq	r0, {r0, r2, r3, r4, r6, r9, sl}
 800012c:	0800065d 	stmdaeq	r0, {r0, r2, r3, r4, r6, r9, sl}

Disassembly of section .text:

08000130 <__do_global_dtors_aux>:
 8000130:	b510      	push	{r4, lr}
 8000132:	4c05      	ldr	r4, [pc, #20]	; (8000148 <__do_global_dtors_aux+0x18>)
 8000134:	7823      	ldrb	r3, [r4, #0]
 8000136:	b933      	cbnz	r3, 8000146 <__do_global_dtors_aux+0x16>
 8000138:	4b04      	ldr	r3, [pc, #16]	; (800014c <__do_global_dtors_aux+0x1c>)
 800013a:	b113      	cbz	r3, 8000142 <__do_global_dtors_aux+0x12>
 800013c:	4804      	ldr	r0, [pc, #16]	; (8000150 <__do_global_dtors_aux+0x20>)
 800013e:	f3af 8000 	nop.w
 8000142:	2301      	movs	r3, #1
 8000144:	7023      	strb	r3, [r4, #0]
 8000146:	bd10      	pop	{r4, pc}
 8000148:	20000000 	andcs	r0, r0, r0
 800014c:	00000000 	andeq	r0, r0, r0
 8000150:	080006a8 	stmdaeq	r0, {r3, r5, r7, r9, sl}

08000154 <frame_dummy>:
 8000154:	b508      	push	{r3, lr}
 8000156:	4b03      	ldr	r3, [pc, #12]	; (8000164 <frame_dummy+0x10>)
 8000158:	b11b      	cbz	r3, 8000162 <frame_dummy+0xe>
 800015a:	4903      	ldr	r1, [pc, #12]	; (8000168 <frame_dummy+0x14>)
 800015c:	4803      	ldr	r0, [pc, #12]	; (800016c <frame_dummy+0x18>)
 800015e:	f3af 8000 	nop.w
 8000162:	bd08      	pop	{r3, pc}
 8000164:	00000000 	andeq	r0, r0, r0
 8000168:	20000004 	andcs	r0, r0, r4
 800016c:	080006a8 	stmdaeq	r0, {r3, r5, r7, r9, sl}

08000170 <EXTI0_IRQHandler>:
 8000170:	b580      	push	{r7, lr}
 8000172:	af00      	add	r7, sp, #0
 8000174:	4b05      	ldr	r3, [pc, #20]	; (800018c <EXTI0_IRQHandler+0x1c>)
 8000176:	695b      	ldr	r3, [r3, #20]
 8000178:	4a04      	ldr	r2, [pc, #16]	; (800018c <EXTI0_IRQHandler+0x1c>)
 800017a:	f043 0301 	orr.w	r3, r3, #1
 800017e:	6153      	str	r3, [r2, #20]
 8000180:	4b03      	ldr	r3, [pc, #12]	; (8000190 <EXTI0_IRQHandler+0x20>)
 8000182:	681b      	ldr	r3, [r3, #0]
 8000184:	4798      	blx	r3
 8000186:	bf00      	nop
 8000188:	bd80      	pop	{r7, pc}
 800018a:	bf00      	nop
 800018c:	40010400 	andmi	r0, r1, r0, lsl #8
 8000190:	20000020 	andcs	r0, r0, r0, lsr #32

08000194 <EXTI1_IRQHandler>:
 8000194:	b580      	push	{r7, lr}
 8000196:	af00      	add	r7, sp, #0
 8000198:	4b05      	ldr	r3, [pc, #20]	; (80001b0 <EXTI1_IRQHandler+0x1c>)
 800019a:	695b      	ldr	r3, [r3, #20]
 800019c:	4a04      	ldr	r2, [pc, #16]	; (80001b0 <EXTI1_IRQHandler+0x1c>)
 800019e:	f043 0302 	orr.w	r3, r3, #2
 80001a2:	6153      	str	r3, [r2, #20]
 80001a4:	4b03      	ldr	r3, [pc, #12]	; (80001b4 <EXTI1_IRQHandler+0x20>)
 80001a6:	685b      	ldr	r3, [r3, #4]
 80001a8:	4798      	blx	r3
 80001aa:	bf00      	nop
 80001ac:	bd80      	pop	{r7, pc}
 80001ae:	bf00      	nop
 80001b0:	40010400 	andmi	r0, r1, r0, lsl #8
 80001b4:	20000020 	andcs	r0, r0, r0, lsr #32

080001b8 <EXTI2_IRQHandler>:
 80001b8:	b580      	push	{r7, lr}
 80001ba:	af00      	add	r7, sp, #0
 80001bc:	4b05      	ldr	r3, [pc, #20]	; (80001d4 <EXTI2_IRQHandler+0x1c>)
 80001be:	695b      	ldr	r3, [r3, #20]
 80001c0:	4a04      	ldr	r2, [pc, #16]	; (80001d4 <EXTI2_IRQHandler+0x1c>)
 80001c2:	f043 0304 	orr.w	r3, r3, #4
 80001c6:	6153      	str	r3, [r2, #20]
 80001c8:	4b03      	ldr	r3, [pc, #12]	; (80001d8 <EXTI2_IRQHandler+0x20>)
 80001ca:	689b      	ldr	r3, [r3, #8]
 80001cc:	4798      	blx	r3
 80001ce:	bf00      	nop
 80001d0:	bd80      	pop	{r7, pc}
 80001d2:	bf00      	nop
 80001d4:	40010400 	andmi	r0, r1, r0, lsl #8
 80001d8:	20000020 	andcs	r0, r0, r0, lsr #32

080001dc <EXTI3_IRQHandler>:
 80001dc:	b580      	push	{r7, lr}
 80001de:	af00      	add	r7, sp, #0
 80001e0:	4b05      	ldr	r3, [pc, #20]	; (80001f8 <EXTI3_IRQHandler+0x1c>)
 80001e2:	695b      	ldr	r3, [r3, #20]
 80001e4:	4a04      	ldr	r2, [pc, #16]	; (80001f8 <EXTI3_IRQHandler+0x1c>)
 80001e6:	f043 0308 	orr.w	r3, r3, #8
 80001ea:	6153      	str	r3, [r2, #20]
 80001ec:	4b03      	ldr	r3, [pc, #12]	; (80001fc <EXTI3_IRQHandler+0x20>)
 80001ee:	68db      	ldr	r3, [r3, #12]
 80001f0:	4798      	blx	r3
 80001f2:	bf00      	nop
 80001f4:	bd80      	pop	{r7, pc}
 80001f6:	bf00      	nop
 80001f8:	40010400 	andmi	r0, r1, r0, lsl #8
 80001fc:	20000020 	andcs	r0, r0, r0, lsr #32

08000200 <EXTI4_IRQHandler>:
 8000200:	b580      	push	{r7, lr}
 8000202:	af00      	add	r7, sp, #0
 8000204:	4b05      	ldr	r3, [pc, #20]	; (800021c <EXTI4_IRQHandler+0x1c>)
 8000206:	695b      	ldr	r3, [r3, #20]
 8000208:	4a04      	ldr	r2, [pc, #16]	; (800021c <EXTI4_IRQHandler+0x1c>)
 800020a:	f043 0310 	orr.w	r3, r3, #16
 800020e:	6153      	str	r3, [r2, #20]
 8000210:	4b03      	ldr	r3, [pc, #12]	; (8000220 <EXTI4_IRQHandler+0x20>)
 8000212:	691b      	ldr	r3, [r3, #16]
 8000214:	4798      	blx	r3
 8000216:	bf00      	nop
 8000218:	bd80      	pop	{r7, pc}
 800021a:	bf00      	nop
 800021c:	40010400 	andmi	r0, r1, r0, lsl #8
 8000220:	20000020 	andcs	r0, r0, r0, lsr #32

08000224 <EXTI9_5_IRQHandler>:
 8000224:	b580      	push	{r7, lr}
 8000226:	af00      	add	r7, sp, #0
 8000228:	4b26      	ldr	r3, [pc, #152]	; (80002c4 <EXTI9_5_IRQHandler+0xa0>)
 800022a:	695b      	ldr	r3, [r3, #20]
 800022c:	f003 0320 	and.w	r3, r3, #32
 8000230:	2b00      	cmp	r3, #0
 8000232:	d008      	beq.n	8000246 <EXTI9_5_IRQHandler+0x22>
 8000234:	4b23      	ldr	r3, [pc, #140]	; (80002c4 <EXTI9_5_IRQHandler+0xa0>)
 8000236:	695b      	ldr	r3, [r3, #20]
 8000238:	4a22      	ldr	r2, [pc, #136]	; (80002c4 <EXTI9_5_IRQHandler+0xa0>)
 800023a:	f043 0320 	orr.w	r3, r3, #32
 800023e:	6153      	str	r3, [r2, #20]
 8000240:	4b21      	ldr	r3, [pc, #132]	; (80002c8 <EXTI9_5_IRQHandler+0xa4>)
 8000242:	695b      	ldr	r3, [r3, #20]
 8000244:	4798      	blx	r3
 8000246:	4b1f      	ldr	r3, [pc, #124]	; (80002c4 <EXTI9_5_IRQHandler+0xa0>)
 8000248:	695b      	ldr	r3, [r3, #20]
 800024a:	f003 0340 	and.w	r3, r3, #64	; 0x40
 800024e:	2b00      	cmp	r3, #0
 8000250:	d008      	beq.n	8000264 <EXTI9_5_IRQHandler+0x40>
 8000252:	4b1c      	ldr	r3, [pc, #112]	; (80002c4 <EXTI9_5_IRQHandler+0xa0>)
 8000254:	695b      	ldr	r3, [r3, #20]
 8000256:	4a1b      	ldr	r2, [pc, #108]	; (80002c4 <EXTI9_5_IRQHandler+0xa0>)
 8000258:	f043 0340 	orr.w	r3, r3, #64	; 0x40
 800025c:	6153      	str	r3, [r2, #20]
 800025e:	4b1a      	ldr	r3, [pc, #104]	; (80002c8 <EXTI9_5_IRQHandler+0xa4>)
 8000260:	699b      	ldr	r3, [r3, #24]
 8000262:	4798      	blx	r3
 8000264:	4b17      	ldr	r3, [pc, #92]	; (80002c4 <EXTI9_5_IRQHandler+0xa0>)
 8000266:	695b      	ldr	r3, [r3, #20]
 8000268:	f003 0380 	and.w	r3, r3, #128	; 0x80
 800026c:	2b00      	cmp	r3, #0
 800026e:	d008      	beq.n	8000282 <EXTI9_5_IRQHandler+0x5e>
 8000270:	4b14      	ldr	r3, [pc, #80]	; (80002c4 <EXTI9_5_IRQHandler+0xa0>)
 8000272:	695b      	ldr	r3, [r3, #20]
 8000274:	4a13      	ldr	r2, [pc, #76]	; (80002c4 <EXTI9_5_IRQHandler+0xa0>)
 8000276:	f043 0380 	orr.w	r3, r3, #128	; 0x80
 800027a:	6153      	str	r3, [r2, #20]
 800027c:	4b12      	ldr	r3, [pc, #72]	; (80002c8 <EXTI9_5_IRQHandler+0xa4>)
 800027e:	69db      	ldr	r3, [r3, #28]
 8000280:	4798      	blx	r3
 8000282:	4b10      	ldr	r3, [pc, #64]	; (80002c4 <EXTI9_5_IRQHandler+0xa0>)
 8000284:	695b      	ldr	r3, [r3, #20]
 8000286:	f403 7380 	and.w	r3, r3, #256	; 0x100
 800028a:	2b00      	cmp	r3, #0
 800028c:	d008      	beq.n	80002a0 <EXTI9_5_IRQHandler+0x7c>
 800028e:	4b0d      	ldr	r3, [pc, #52]	; (80002c4 <EXTI9_5_IRQHandler+0xa0>)
 8000290:	695b      	ldr	r3, [r3, #20]
 8000292:	4a0c      	ldr	r2, [pc, #48]	; (80002c4 <EXTI9_5_IRQHandler+0xa0>)
 8000294:	f443 7380 	orr.w	r3, r3, #256	; 0x100
 8000298:	6153      	str	r3, [r2, #20]
 800029a:	4b0b      	ldr	r3, [pc, #44]	; (80002c8 <EXTI9_5_IRQHandler+0xa4>)
 800029c:	6a1b      	ldr	r3, [r3, #32]
 800029e:	4798      	blx	r3
 80002a0:	4b08      	ldr	r3, [pc, #32]	; (80002c4 <EXTI9_5_IRQHandler+0xa0>)
 80002a2:	695b      	ldr	r3, [r3, #20]
 80002a4:	f403 7300 	and.w	r3, r3, #512	; 0x200
 80002a8:	2b00      	cmp	r3, #0
 80002aa:	d008      	beq.n	80002be <EXTI9_5_IRQHandler+0x9a>
 80002ac:	4b05      	ldr	r3, [pc, #20]	; (80002c4 <EXTI9_5_IRQHandler+0xa0>)
 80002ae:	695b      	ldr	r3, [r3, #20]
 80002b0:	4a04      	ldr	r2, [pc, #16]	; (80002c4 <EXTI9_5_IRQHandler+0xa0>)
 80002b2:	f443 7300 	orr.w	r3, r3, #512	; 0x200
 80002b6:	6153      	str	r3, [r2, #20]
 80002b8:	4b03      	ldr	r3, [pc, #12]	; (80002c8 <EXTI9_5_IRQHandler+0xa4>)
 80002ba:	6a5b      	ldr	r3, [r3, #36]	; 0x24
 80002bc:	4798      	blx	r3
 80002be:	bf00      	nop
 80002c0:	bd80      	pop	{r7, pc}
 80002c2:	bf00      	nop
 80002c4:	40010400 	andmi	r0, r1, r0, lsl #8
 80002c8:	20000020 	andcs	r0, r0, r0, lsr #32

080002cc <EXTI15_10_IRQHandler>:
 80002cc:	b580      	push	{r7, lr}
 80002ce:	af00      	add	r7, sp, #0
 80002d0:	4b30      	ldr	r3, [pc, #192]	; (8000394 <EXTI15_10_IRQHandler+0xc8>)
 80002d2:	695b      	ldr	r3, [r3, #20]
 80002d4:	f403 6380 	and.w	r3, r3, #1024	; 0x400
 80002d8:	2b00      	cmp	r3, #0
 80002da:	d009      	beq.n	80002f0 <EXTI15_10_IRQHandler+0x24>
 80002dc:	4b2d      	ldr	r3, [pc, #180]	; (8000394 <EXTI15_10_IRQHandler+0xc8>)
 80002de:	695b      	ldr	r3, [r3, #20]
 80002e0:	4a2c      	ldr	r2, [pc, #176]	; (8000394 <EXTI15_10_IRQHandler+0xc8>)
 80002e2:	f443 6380 	orr.w	r3, r3, #1024	; 0x400
 80002e6:	6153      	str	r3, [r2, #20]
 80002e8:	4b2b      	ldr	r3, [pc, #172]	; (8000398 <EXTI15_10_IRQHandler+0xcc>)
 80002ea:	6a9b      	ldr	r3, [r3, #40]	; 0x28
 80002ec:	4798      	blx	r3
 80002ee:	e04e      	b.n	800038e <EXTI15_10_IRQHandler+0xc2>
 80002f0:	4b28      	ldr	r3, [pc, #160]	; (8000394 <EXTI15_10_IRQHandler+0xc8>)
 80002f2:	695b      	ldr	r3, [r3, #20]
 80002f4:	f403 6300 	and.w	r3, r3, #2048	; 0x800
 80002f8:	2b00      	cmp	r3, #0
 80002fa:	d009      	beq.n	8000310 <EXTI15_10_IRQHandler+0x44>
 80002fc:	4b25      	ldr	r3, [pc, #148]	; (8000394 <EXTI15_10_IRQHandler+0xc8>)
 80002fe:	695b      	ldr	r3, [r3, #20]
 8000300:	4a24      	ldr	r2, [pc, #144]	; (8000394 <EXTI15_10_IRQHandler+0xc8>)
 8000302:	f443 6300 	orr.w	r3, r3, #2048	; 0x800
 8000306:	6153      	str	r3, [r2, #20]
 8000308:	4b23      	ldr	r3, [pc, #140]	; (8000398 <EXTI15_10_IRQHandler+0xcc>)
 800030a:	6adb      	ldr	r3, [r3, #44]	; 0x2c
 800030c:	4798      	blx	r3
 800030e:	e03e      	b.n	800038e <EXTI15_10_IRQHandler+0xc2>
 8000310:	4b20      	ldr	r3, [pc, #128]	; (8000394 <EXTI15_10_IRQHandler+0xc8>)
 8000312:	695b      	ldr	r3, [r3, #20]
 8000314:	f403 5380 	and.w	r3, r3, #4096	; 0x1000
 8000318:	2b00      	cmp	r3, #0
 800031a:	d009      	beq.n	8000330 <EXTI15_10_IRQHandler+0x64>
 800031c:	4b1d      	ldr	r3, [pc, #116]	; (8000394 <EXTI15_10_IRQHandler+0xc8>)
 800031e:	695b      	ldr	r3, [r3, #20]
 8000320:	4a1c      	ldr	r2, [pc, #112]	; (8000394 <EXTI15_10_IRQHandler+0xc8>)
 8000322:	f443 5380 	orr.w	r3, r3, #4096	; 0x1000
 8000326:	6153      	str	r3, [r2, #20]
 8000328:	4b1b      	ldr	r3, [pc, #108]	; (8000398 <EXTI15_10_IRQHandler+0xcc>)
 800032a:	6b1b      	ldr	r3, [r3, #48]	; 0x30
 800032c:	4798      	blx	r3
 800032e:	e02e      	b.n	800038e <EXTI15_10_IRQHandler+0xc2>
 8000330:	4b18      	ldr	r3, [pc, #96]	; (8000394 <EXTI15_10_IRQHandler+0xc8>)
 8000332:	695b      	ldr	r3, [r3, #20]
 8000334:	f403 5300 	and.w	r3, r3, #8192	; 0x2000
 8000338:	2b00      	cmp	r3, #0
 800033a:	d009      	beq.n	8000350 <EXTI15_10_IRQHandler+0x84>
 800033c:	4b15      	ldr	r3, [pc, #84]	; (8000394 <EXTI15_10_IRQHandler+0xc8>)
 800033e:	695b      	ldr	r3, [r3, #20]
 8000340:	4a14      	ldr	r2, [pc, #80]	; (8000394 <EXTI15_10_IRQHandler+0xc8>)
 8000342:	f443 5300 	orr.w	r3, r3, #8192	; 0x2000
 8000346:	6153      	str	r3, [r2, #20]
 8000348:	4b13      	ldr	r3, [pc, #76]	; (8000398 <EXTI15_10_IRQHandler+0xcc>)
 800034a:	6b5b      	ldr	r3, [r3, #52]	; 0x34
 800034c:	4798      	blx	r3
 800034e:	e01e      	b.n	800038e <EXTI15_10_IRQHandler+0xc2>
 8000350:	4b10      	ldr	r3, [pc, #64]	; (8000394 <EXTI15_10_IRQHandler+0xc8>)
 8000352:	695b      	ldr	r3, [r3, #20]
 8000354:	f403 4380 	and.w	r3, r3, #16384	; 0x4000
 8000358:	2b00      	cmp	r3, #0
 800035a:	d009      	beq.n	8000370 <EXTI15_10_IRQHandler+0xa4>
 800035c:	4b0d      	ldr	r3, [pc, #52]	; (8000394 <EXTI15_10_IRQHandler+0xc8>)
 800035e:	695b      	ldr	r3, [r3, #20]
 8000360:	4a0c      	ldr	r2, [pc, #48]	; (8000394 <EXTI15_10_IRQHandler+0xc8>)
 8000362:	f443 4380 	orr.w	r3, r3, #16384	; 0x4000
 8000366:	6153      	str	r3, [r2, #20]
 8000368:	4b0b      	ldr	r3, [pc, #44]	; (8000398 <EXTI15_10_IRQHandler+0xcc>)
 800036a:	6b9b      	ldr	r3, [r3, #56]	; 0x38
 800036c:	4798      	blx	r3
 800036e:	e00e      	b.n	800038e <EXTI15_10_IRQHandler+0xc2>
 8000370:	4b08      	ldr	r3, [pc, #32]	; (8000394 <EXTI15_10_IRQHandler+0xc8>)
 8000372:	695b      	ldr	r3, [r3, #20]
 8000374:	f403 4300 	and.w	r3, r3, #32768	; 0x8000
 8000378:	2b00      	cmp	r3, #0
 800037a:	d008      	beq.n	800038e <EXTI15_10_IRQHandler+0xc2>
 800037c:	4b05      	ldr	r3, [pc, #20]	; (8000394 <EXTI15_10_IRQHandler+0xc8>)
 800037e:	695b      	ldr	r3, [r3, #20]
 8000380:	4a04      	ldr	r2, [pc, #16]	; (8000394 <EXTI15_10_IRQHandler+0xc8>)
 8000382:	f443 4300 	orr.w	r3, r3, #32768	; 0x8000
 8000386:	6153      	str	r3, [r2, #20]
 8000388:	4b03      	ldr	r3, [pc, #12]	; (8000398 <EXTI15_10_IRQHandler+0xcc>)
 800038a:	6bdb      	ldr	r3, [r3, #60]	; 0x3c
 800038c:	4798      	blx	r3
 800038e:	bf00      	nop
 8000390:	bd80      	pop	{r7, pc}
 8000392:	bf00      	nop
 8000394:	40010400 	andmi	r0, r1, r0, lsl #8
 8000398:	20000020 	andcs	r0, r0, r0, lsr #32

0800039c <I2C1_ER_IRQHandler>:
 800039c:	b480      	push	{r7}
 800039e:	af00      	add	r7, sp, #0
 80003a0:	bf00      	nop
 80003a2:	46bd      	mov	sp, r7
 80003a4:	bc80      	pop	{r7}
 80003a6:	4770      	bx	lr

080003a8 <I2C1_EV_IRQHandler>:
 80003a8:	b480      	push	{r7}
 80003aa:	af00      	add	r7, sp, #0
 80003ac:	bf00      	nop
 80003ae:	46bd      	mov	sp, r7
 80003b0:	bc80      	pop	{r7}
 80003b2:	4770      	bx	lr

080003b4 <I2C2_ER_IRQHandler>:
 80003b4:	b480      	push	{r7}
 80003b6:	af00      	add	r7, sp, #0
 80003b8:	bf00      	nop
 80003ba:	46bd      	mov	sp, r7
 80003bc:	bc80      	pop	{r7}
 80003be:	4770      	bx	lr

080003c0 <I2C2_EV_IRQHandler>:
 80003c0:	b480      	push	{r7}
 80003c2:	af00      	add	r7, sp, #0
 80003c4:	bf00      	nop
 80003c6:	46bd      	mov	sp, r7
 80003c8:	bc80      	pop	{r7}
 80003ca:	4770      	bx	lr

080003cc <SPI1_IRQHandler>:
 80003cc:	b580      	push	{r7, lr}
 80003ce:	b082      	sub	sp, #8
 80003d0:	af00      	add	r7, sp, #0
 80003d2:	4b0e      	ldr	r3, [pc, #56]	; (800040c <SPI1_IRQHandler+0x40>)
 80003d4:	689b      	ldr	r3, [r3, #8]
 80003d6:	f003 0301 	and.w	r3, r3, #1
 80003da:	b2da      	uxtb	r2, r3
 80003dc:	793b      	ldrb	r3, [r7, #4]
 80003de:	f362 0300 	bfi	r3, r2, #0, #1
 80003e2:	713b      	strb	r3, [r7, #4]
 80003e4:	4b09      	ldr	r3, [pc, #36]	; (800040c <SPI1_IRQHandler+0x40>)
 80003e6:	689b      	ldr	r3, [r3, #8]
 80003e8:	085b      	lsrs	r3, r3, #1
 80003ea:	f003 0301 	and.w	r3, r3, #1
 80003ee:	b2da      	uxtb	r2, r3
 80003f0:	793b      	ldrb	r3, [r7, #4]
 80003f2:	f362 0341 	bfi	r3, r2, #1, #1
 80003f6:	713b      	strb	r3, [r7, #4]
 80003f8:	4b05      	ldr	r3, [pc, #20]	; (8000410 <SPI1_IRQHandler+0x44>)
 80003fa:	681b      	ldr	r3, [r3, #0]
 80003fc:	695b      	ldr	r3, [r3, #20]
 80003fe:	1d3a      	adds	r2, r7, #4
 8000400:	4610      	mov	r0, r2
 8000402:	4798      	blx	r3
 8000404:	bf00      	nop
 8000406:	3708      	adds	r7, #8
 8000408:	46bd      	mov	sp, r7
 800040a:	bd80      	pop	{r7, pc}
 800040c:	40013000 	andmi	r3, r1, r0
 8000410:	2000005c 	andcs	r0, r0, ip, asr r0

08000414 <SPI2_IRQHandler>:
 8000414:	b580      	push	{r7, lr}
 8000416:	b082      	sub	sp, #8
 8000418:	af00      	add	r7, sp, #0
 800041a:	4b0e      	ldr	r3, [pc, #56]	; (8000454 <SPI2_IRQHandler+0x40>)
 800041c:	689b      	ldr	r3, [r3, #8]
 800041e:	f003 0301 	and.w	r3, r3, #1
 8000422:	b2da      	uxtb	r2, r3
 8000424:	793b      	ldrb	r3, [r7, #4]
 8000426:	f362 0300 	bfi	r3, r2, #0, #1
 800042a:	713b      	strb	r3, [r7, #4]
 800042c:	4b09      	ldr	r3, [pc, #36]	; (8000454 <SPI2_IRQHandler+0x40>)
 800042e:	689b      	ldr	r3, [r3, #8]
 8000430:	085b      	lsrs	r3, r3, #1
 8000432:	f003 0301 	and.w	r3, r3, #1
 8000436:	b2da      	uxtb	r2, r3
 8000438:	793b      	ldrb	r3, [r7, #4]
 800043a:	f362 0341 	bfi	r3, r2, #1, #1
 800043e:	713b      	strb	r3, [r7, #4]
 8000440:	4b05      	ldr	r3, [pc, #20]	; (8000458 <SPI2_IRQHandler+0x44>)
 8000442:	681b      	ldr	r3, [r3, #0]
 8000444:	695b      	ldr	r3, [r3, #20]
 8000446:	1d3a      	adds	r2, r7, #4
 8000448:	4610      	mov	r0, r2
 800044a:	4798      	blx	r3
 800044c:	bf00      	nop
 800044e:	3708      	adds	r7, #8
 8000450:	46bd      	mov	sp, r7
 8000452:	bd80      	pop	{r7, pc}
 8000454:	40003800 	andmi	r3, r0, r0, lsl #16
 8000458:	2000005c 	andcs	r0, r0, ip, asr r0

0800045c <USART1_IRQHandler>:
 800045c:	b580      	push	{r7, lr}
 800045e:	b082      	sub	sp, #8
 8000460:	af00      	add	r7, sp, #0
 8000462:	2300      	movs	r3, #0
 8000464:	713b      	strb	r3, [r7, #4]
 8000466:	4b14      	ldr	r3, [pc, #80]	; (80004b8 <USART1_IRQHandler+0x5c>)
 8000468:	681b      	ldr	r3, [r3, #0]
 800046a:	095b      	lsrs	r3, r3, #5
 800046c:	f003 0301 	and.w	r3, r3, #1
 8000470:	b2da      	uxtb	r2, r3
 8000472:	793b      	ldrb	r3, [r7, #4]
 8000474:	f362 0300 	bfi	r3, r2, #0, #1
 8000478:	713b      	strb	r3, [r7, #4]
 800047a:	4b0f      	ldr	r3, [pc, #60]	; (80004b8 <USART1_IRQHandler+0x5c>)
 800047c:	681b      	ldr	r3, [r3, #0]
 800047e:	099b      	lsrs	r3, r3, #6
 8000480:	f003 0301 	and.w	r3, r3, #1
 8000484:	b2da      	uxtb	r2, r3
 8000486:	793b      	ldrb	r3, [r7, #4]
 8000488:	f362 0341 	bfi	r3, r2, #1, #1
 800048c:	713b      	strb	r3, [r7, #4]
 800048e:	4b0a      	ldr	r3, [pc, #40]	; (80004b8 <USART1_IRQHandler+0x5c>)
 8000490:	681b      	ldr	r3, [r3, #0]
 8000492:	09db      	lsrs	r3, r3, #7
 8000494:	f003 0301 	and.w	r3, r3, #1
 8000498:	b2da      	uxtb	r2, r3
 800049a:	793b      	ldrb	r3, [r7, #4]
 800049c:	f362 0382 	bfi	r3, r2, #2, #1
 80004a0:	713b      	strb	r3, [r7, #4]
 80004a2:	4b06      	ldr	r3, [pc, #24]	; (80004bc <USART1_IRQHandler+0x60>)
 80004a4:	681b      	ldr	r3, [r3, #0]
 80004a6:	695b      	ldr	r3, [r3, #20]
 80004a8:	1d3a      	adds	r2, r7, #4
 80004aa:	4610      	mov	r0, r2
 80004ac:	4798      	blx	r3
 80004ae:	bf00      	nop
 80004b0:	3708      	adds	r7, #8
 80004b2:	46bd      	mov	sp, r7
 80004b4:	bd80      	pop	{r7, pc}
 80004b6:	bf00      	nop
 80004b8:	40013800 	andmi	r3, r1, r0, lsl #16
 80004bc:	2000001c 	andcs	r0, r0, ip, lsl r0

080004c0 <OS_SVC_Set>:
 80004c0:	b480      	push	{r7}
 80004c2:	b087      	sub	sp, #28
 80004c4:	af00      	add	r7, sp, #0
 80004c6:	60f8      	str	r0, [r7, #12]
 80004c8:	60b9      	str	r1, [r7, #8]
 80004ca:	607a      	str	r2, [r7, #4]
 80004cc:	687b      	ldr	r3, [r7, #4]
 80004ce:	3b01      	subs	r3, #1
 80004d0:	2b03      	cmp	r3, #3
 80004d2:	d818      	bhi.n	8000506 <OS_SVC_Set+0x46>
 80004d4:	a201      	add	r2, pc, #4	; (adr r2, 80004dc <OS_SVC_Set+0x1c>)
 80004d6:	f852 f023 	ldr.w	pc, [r2, r3, lsl #2]
 80004da:	bf00      	nop
 80004dc:	080004ed 	stmdaeq	r0, {r0, r2, r3, r5, r6, r7, sl}
 80004e0:	080004f1 	stmdaeq	r0, {r0, r4, r5, r6, r7, sl}
 80004e4:	080004f5 	stmdaeq	r0, {r0, r2, r4, r5, r6, r7, sl}
 80004e8:	080004f9 	stmdaeq	r0, {r0, r3, r4, r5, r6, r7, sl}
 80004ec:	df01      	svc	1
 80004ee:	e00a      	b.n	8000506 <OS_SVC_Set+0x46>
 80004f0:	df02      	svc	2
 80004f2:	e008      	b.n	8000506 <OS_SVC_Set+0x46>
 80004f4:	df03      	svc	3
 80004f6:	e006      	b.n	8000506 <OS_SVC_Set+0x46>
 80004f8:	4b07      	ldr	r3, [pc, #28]	; (8000518 <OS_SVC_Set+0x58>)
 80004fa:	685b      	ldr	r3, [r3, #4]
 80004fc:	4a06      	ldr	r2, [pc, #24]	; (8000518 <OS_SVC_Set+0x58>)
 80004fe:	f043 5380 	orr.w	r3, r3, #268435456	; 0x10000000
 8000502:	6053      	str	r3, [r2, #4]
 8000504:	bf00      	nop
 8000506:	4603      	mov	r3, r0
 8000508:	617b      	str	r3, [r7, #20]
 800050a:	697b      	ldr	r3, [r7, #20]
 800050c:	4618      	mov	r0, r3
 800050e:	371c      	adds	r7, #28
 8000510:	46bd      	mov	sp, r7
 8000512:	bc80      	pop	{r7}
 8000514:	4770      	bx	lr
 8000516:	bf00      	nop
 8000518:	e000ed00 	and	lr, r0, r0, lsl #26

0800051c <OS_SVC_services>:
 800051c:	b480      	push	{r7}
 800051e:	b087      	sub	sp, #28
 8000520:	af00      	add	r7, sp, #0
 8000522:	6078      	str	r0, [r7, #4]
 8000524:	687b      	ldr	r3, [r7, #4]
 8000526:	3318      	adds	r3, #24
 8000528:	681b      	ldr	r3, [r3, #0]
 800052a:	3b02      	subs	r3, #2
 800052c:	781b      	ldrb	r3, [r3, #0]
 800052e:	75fb      	strb	r3, [r7, #23]
 8000530:	687b      	ldr	r3, [r7, #4]
 8000532:	681b      	ldr	r3, [r3, #0]
 8000534:	613b      	str	r3, [r7, #16]
 8000536:	687b      	ldr	r3, [r7, #4]
 8000538:	3304      	adds	r3, #4
 800053a:	681b      	ldr	r3, [r3, #0]
 800053c:	60fb      	str	r3, [r7, #12]
 800053e:	7dfb      	ldrb	r3, [r7, #23]
 8000540:	2b02      	cmp	r3, #2
 8000542:	d00b      	beq.n	800055c <OS_SVC_services+0x40>
 8000544:	2b03      	cmp	r3, #3
 8000546:	d010      	beq.n	800056a <OS_SVC_services+0x4e>
 8000548:	2b01      	cmp	r3, #1
 800054a:	d000      	beq.n	800054e <OS_SVC_services+0x32>
 800054c:	e016      	b.n	800057c <OS_SVC_services+0x60>
 800054e:	693a      	ldr	r2, [r7, #16]
 8000550:	68fb      	ldr	r3, [r7, #12]
 8000552:	4413      	add	r3, r2
 8000554:	461a      	mov	r2, r3
 8000556:	687b      	ldr	r3, [r7, #4]
 8000558:	601a      	str	r2, [r3, #0]
 800055a:	e00e      	b.n	800057a <OS_SVC_services+0x5e>
 800055c:	693a      	ldr	r2, [r7, #16]
 800055e:	68fb      	ldr	r3, [r7, #12]
 8000560:	1ad3      	subs	r3, r2, r3
 8000562:	461a      	mov	r2, r3
 8000564:	687b      	ldr	r3, [r7, #4]
 8000566:	601a      	str	r2, [r3, #0]
 8000568:	e007      	b.n	800057a <OS_SVC_services+0x5e>
 800056a:	693b      	ldr	r3, [r7, #16]
 800056c:	68fa      	ldr	r2, [r7, #12]
 800056e:	fb02 f303 	mul.w	r3, r2, r3
 8000572:	461a      	mov	r2, r3
 8000574:	687b      	ldr	r3, [r7, #4]
 8000576:	601a      	str	r2, [r3, #0]
 8000578:	bf00      	nop
 800057a:	bf00      	nop
 800057c:	371c      	adds	r7, #28
 800057e:	46bd      	mov	sp, r7
 8000580:	bc80      	pop	{r7}
 8000582:	4770      	bx	lr

08000584 <SVC_Handler>:
 8000584:	f01e 0f04 	tst.w	lr, #4
 8000588:	bf0c      	ite	eq
 800058a:	f3ef 8008 	mrseq	r0, MSP
 800058e:	f3ef 8009 	mrsne	r0, PSP
 8000592:	f7ff bfc3 	b.w	800051c <OS_SVC_services>
 8000596:	bf00      	nop

08000598 <PendSV_Handler>:
 8000598:	b480      	push	{r7}
 800059a:	af00      	add	r7, sp, #0
 800059c:	bf00      	nop
 800059e:	46bd      	mov	sp, r7
 80005a0:	bc80      	pop	{r7}
 80005a2:	4770      	bx	lr

080005a4 <main>:
 80005a4:	b580      	push	{r7, lr}
 80005a6:	af00      	add	r7, sp, #0
 80005a8:	4b17      	ldr	r3, [pc, #92]	; (8000608 <main+0x64>)
 80005aa:	2201      	movs	r2, #1
 80005ac:	701a      	strb	r2, [r3, #0]
 80005ae:	2201      	movs	r2, #1
 80005b0:	2103      	movs	r1, #3
 80005b2:	2003      	movs	r0, #3
 80005b4:	f7ff ff84 	bl	80004c0 <OS_SVC_Set>
 80005b8:	4603      	mov	r3, r0
 80005ba:	b2da      	uxtb	r2, r3
 80005bc:	4b12      	ldr	r3, [pc, #72]	; (8000608 <main+0x64>)
 80005be:	701a      	strb	r2, [r3, #0]
 80005c0:	2202      	movs	r2, #2
 80005c2:	2103      	movs	r1, #3
 80005c4:	2003      	movs	r0, #3
 80005c6:	f7ff ff7b 	bl	80004c0 <OS_SVC_Set>
 80005ca:	4603      	mov	r3, r0
 80005cc:	b2da      	uxtb	r2, r3
 80005ce:	4b0e      	ldr	r3, [pc, #56]	; (8000608 <main+0x64>)
 80005d0:	701a      	strb	r2, [r3, #0]
 80005d2:	2203      	movs	r2, #3
 80005d4:	2103      	movs	r1, #3
 80005d6:	2003      	movs	r0, #3
 80005d8:	f7ff ff72 	bl	80004c0 <OS_SVC_Set>
 80005dc:	4603      	mov	r3, r0
 80005de:	b2da      	uxtb	r2, r3
 80005e0:	4b09      	ldr	r3, [pc, #36]	; (8000608 <main+0x64>)
 80005e2:	701a      	strb	r2, [r3, #0]
 80005e4:	2204      	movs	r2, #4
 80005e6:	2100      	movs	r1, #0
 80005e8:	2000      	movs	r0, #0
 80005ea:	f7ff ff69 	bl	80004c0 <OS_SVC_Set>
 80005ee:	4603      	mov	r3, r0
 80005f0:	b2da      	uxtb	r2, r3
 80005f2:	4b05      	ldr	r3, [pc, #20]	; (8000608 <main+0x64>)
 80005f4:	701a      	strb	r2, [r3, #0]
 80005f6:	4b04      	ldr	r3, [pc, #16]	; (8000608 <main+0x64>)
 80005f8:	781b      	ldrb	r3, [r3, #0]
 80005fa:	2b00      	cmp	r3, #0
 80005fc:	d0fb      	beq.n	80005f6 <main+0x52>
 80005fe:	4b02      	ldr	r3, [pc, #8]	; (8000608 <main+0x64>)
 8000600:	2200      	movs	r2, #0
 8000602:	701a      	strb	r2, [r3, #0]
 8000604:	e7f7      	b.n	80005f6 <main+0x52>
 8000606:	bf00      	nop
 8000608:	20000068 	andcs	r0, r0, r8, rrx

0800060c <Reset_Handler>:
 800060c:	480d      	ldr	r0, [pc, #52]	; (8000644 <LoopForever+0x2>)
 800060e:	4685      	mov	sp, r0
 8000610:	f3af 8000 	nop.w
 8000614:	480c      	ldr	r0, [pc, #48]	; (8000648 <LoopForever+0x6>)
 8000616:	490d      	ldr	r1, [pc, #52]	; (800064c <LoopForever+0xa>)
 8000618:	4a0d      	ldr	r2, [pc, #52]	; (8000650 <LoopForever+0xe>)
 800061a:	2300      	movs	r3, #0
 800061c:	e002      	b.n	8000624 <LoopCopyDataInit>

0800061e <CopyDataInit>:
 800061e:	58d4      	ldr	r4, [r2, r3]
 8000620:	50c4      	str	r4, [r0, r3]
 8000622:	3304      	adds	r3, #4

08000624 <LoopCopyDataInit>:
 8000624:	18c4      	adds	r4, r0, r3
 8000626:	428c      	cmp	r4, r1
 8000628:	d3f9      	bcc.n	800061e <CopyDataInit>
 800062a:	4a0a      	ldr	r2, [pc, #40]	; (8000654 <LoopForever+0x12>)
 800062c:	4c0a      	ldr	r4, [pc, #40]	; (8000658 <LoopForever+0x16>)
 800062e:	2300      	movs	r3, #0
 8000630:	e001      	b.n	8000636 <LoopFillZerobss>

08000632 <FillZerobss>:
 8000632:	6013      	str	r3, [r2, #0]
 8000634:	3204      	adds	r2, #4

08000636 <LoopFillZerobss>:
 8000636:	42a2      	cmp	r2, r4
 8000638:	d3fb      	bcc.n	8000632 <FillZerobss>
 800063a:	f000 f811 	bl	8000660 <__libc_init_array>
 800063e:	f7ff ffb1 	bl	80005a4 <main>

08000642 <LoopForever>:
 8000642:	e7fe      	b.n	8000642 <LoopForever>
 8000644:	20002800 	andcs	r2, r0, r0, lsl #16
 8000648:	20000000 	andcs	r0, r0, r0
 800064c:	20000000 	andcs	r0, r0, r0
 8000650:	080006c8 	stmdaeq	r0, {r3, r6, r7, r9, sl}
 8000654:	20000000 	andcs	r0, r0, r0
 8000658:	2000007c 	andcs	r0, r0, ip, ror r0

0800065c <ADC1_2_IRQHandler>:
 800065c:	e7fe      	b.n	800065c <ADC1_2_IRQHandler>
	...

08000660 <__libc_init_array>:
 8000660:	b570      	push	{r4, r5, r6, lr}
 8000662:	2500      	movs	r5, #0
 8000664:	4e0c      	ldr	r6, [pc, #48]	; (8000698 <__libc_init_array+0x38>)
 8000666:	4c0d      	ldr	r4, [pc, #52]	; (800069c <__libc_init_array+0x3c>)
 8000668:	1ba4      	subs	r4, r4, r6
 800066a:	10a4      	asrs	r4, r4, #2
 800066c:	42a5      	cmp	r5, r4
 800066e:	d109      	bne.n	8000684 <__libc_init_array+0x24>
 8000670:	f000 f81a 	bl	80006a8 <_init>
 8000674:	2500      	movs	r5, #0
 8000676:	4e0a      	ldr	r6, [pc, #40]	; (80006a0 <__libc_init_array+0x40>)
 8000678:	4c0a      	ldr	r4, [pc, #40]	; (80006a4 <__libc_init_array+0x44>)
 800067a:	1ba4      	subs	r4, r4, r6
 800067c:	10a4      	asrs	r4, r4, #2
 800067e:	42a5      	cmp	r5, r4
 8000680:	d105      	bne.n	800068e <__libc_init_array+0x2e>
 8000682:	bd70      	pop	{r4, r5, r6, pc}
 8000684:	f856 3025 	ldr.w	r3, [r6, r5, lsl #2]
 8000688:	4798      	blx	r3
 800068a:	3501      	adds	r5, #1
 800068c:	e7ee      	b.n	800066c <__libc_init_array+0xc>
 800068e:	f856 3025 	ldr.w	r3, [r6, r5, lsl #2]
 8000692:	4798      	blx	r3
 8000694:	3501      	adds	r5, #1
 8000696:	e7f2      	b.n	800067e <__libc_init_array+0x1e>
 8000698:	080006c0 	stmdaeq	r0, {r6, r7, r9, sl}
 800069c:	080006c0 	stmdaeq	r0, {r6, r7, r9, sl}
 80006a0:	080006c0 	stmdaeq	r0, {r6, r7, r9, sl}
 80006a4:	080006c4 	stmdaeq	r0, {r2, r6, r7, r9, sl}

080006a8 <_init>:
 80006a8:	b5f8      	push	{r3, r4, r5, r6, r7, lr}
 80006aa:	bf00      	nop
 80006ac:	bcf8      	pop	{r3, r4, r5, r6, r7}
 80006ae:	bc08      	pop	{r3}
 80006b0:	469e      	mov	lr, r3
 80006b2:	4770      	bx	lr

080006b4 <_fini>:
 80006b4:	b5f8      	push	{r3, r4, r5, r6, r7, lr}
 80006b6:	bf00      	nop
 80006b8:	bcf8      	pop	{r3, r4, r5, r6, r7}
 80006ba:	bc08      	pop	{r3}
 80006bc:	469e      	mov	lr, r3
 80006be:	4770      	bx	lr
